Archive member included because of file (symbol)

/home/opt/microchip/xc32/v1.00/bin/../lib/gcc/pic32mx/4.5.1/libgcc.a(floatunsisf.o)
                              build/default/production/_ext/2118813141/Tick.o (__floatunsisf)
/home/opt/microchip/xc32/v1.00/bin/../lib/gcc/pic32mx/4.5.1/../../../../pic32mx/lib/libc.a(memset.o)
                              build/default/production/_ext/1487882678/usb_device.o (memset)
/home/opt/microchip/xc32/v1.00/bin/../lib/gcc/pic32mx/4.5.1/../../../../pic32mx/lib/libc.a(general-exception.o)
                              /home/opt/microchip/xc32/v1.00/bin/../lib/gcc/pic32mx/4.5.1/../../../../pic32mx/lib/crt0.o (_general_exception_context)
/home/opt/microchip/xc32/v1.00/bin/../lib/gcc/pic32mx/4.5.1/../../../../pic32mx/lib/libc.a(default-bootstrap-exception-handler.o)
                              /home/opt/microchip/xc32/v1.00/bin/../lib/gcc/pic32mx/4.5.1/../../../../pic32mx/lib/crt0.o (_bootstrap_exception_handler)
/home/opt/microchip/xc32/v1.00/bin/../lib/gcc/pic32mx/4.5.1/../../../../pic32mx/lib/libc.a(default-on-reset.o)
                              /home/opt/microchip/xc32/v1.00/bin/../lib/gcc/pic32mx/4.5.1/../../../../pic32mx/lib/crt0.o (_on_reset)
/home/opt/microchip/xc32/v1.00/bin/../lib/gcc/pic32mx/4.5.1/../../../../pic32mx/lib/libc.a(default-on-bootstrap.o)
                              /home/opt/microchip/xc32/v1.00/bin/../lib/gcc/pic32mx/4.5.1/../../../../pic32mx/lib/crt0.o (_on_bootstrap)
/home/opt/microchip/xc32/v1.00/bin/../lib/gcc/pic32mx/4.5.1/../../../../pic32mx/lib/libc.a(default-nmi-handler.o)
                              /home/opt/microchip/xc32/v1.00/bin/../lib/gcc/pic32mx/4.5.1/../../../../pic32mx/lib/crt0.o (_nmi_handler)
/home/opt/microchip/xc32/v1.00/bin/../lib/gcc/pic32mx/4.5.1/../../../../pic32mx/lib/libm.a(w_atan2f.o)
                              build/default/production/_ext/1494288313/KosselKinematics.o (atan2f)
/home/opt/microchip/xc32/v1.00/bin/../lib/gcc/pic32mx/4.5.1/../../../../pic32mx/lib/libm.a(fparc32.o)
                              build/default/production/_ext/1494288313/delta.o (atanf)
/home/opt/microchip/xc32/v1.00/bin/../lib/gcc/pic32mx/4.5.1/../../../../pic32mx/lib/libm.a(fpfloo32.o)
                              build/default/production/_ext/1494288313/KosselKinematics.o (floorf)
/home/opt/microchip/xc32/v1.00/bin/../lib/gcc/pic32mx/4.5.1/../../../../pic32mx/lib/libm.a(dp32.o)
                              /home/opt/microchip/xc32/v1.00/bin/../lib/gcc/pic32mx/4.5.1/../../../../pic32mx/lib/libm.a(w_atan2f.o) (fptodp)
/home/opt/microchip/xc32/v1.00/bin/../lib/gcc/pic32mx/4.5.1/../../../../pic32mx/lib/libm.a(fpsqrt32.o)
                              /home/opt/microchip/xc32/v1.00/bin/../lib/gcc/pic32mx/4.5.1/../../../../pic32mx/lib/libm.a(fparc32.o) (fpexsqrt)
/home/opt/microchip/xc32/v1.00/bin/../lib/gcc/pic32mx/4.5.1/../../../../pic32mx/lib/libm.a(w_sqrtf.o)
                              build/default/production/_ext/1494288313/delta.o (sqrtf)
/home/opt/microchip/xc32/v1.00/bin/../lib/gcc/pic32mx/4.5.1/../../../../pic32mx/lib/libm.a(fp32.o)
                              build/default/production/_ext/1487882678/usb_fifo.o (fpsub)
/home/opt/microchip/xc32/v1.00/bin/../lib/gcc/pic32mx/4.5.1/../../../../pic32mx/lib/libm.a(fpcos32.o)
                              build/default/production/_ext/1494288313/KosselKinematics.o (cosf)
/home/opt/microchip/xc32/v1.00/bin/../lib/gcc/pic32mx/4.5.1/../../../../pic32mx/lib/libm.a(fpsin32.o)
                              build/default/production/_ext/1494288313/KosselKinematics.o (sinf)
/home/opt/microchip/xc32/v1.00/bin/../lib/gcc/pic32mx/4.5.1/../../../../pic32mx/lib/libm.a(fpreduct32.o)
                              /home/opt/microchip/xc32/v1.00/bin/../lib/gcc/pic32mx/4.5.1/../../../../pic32mx/lib/libm.a(fpcos32.o) (fpreduct)
/home/opt/microchip/xc32/v1.00/bin/../lib/gcc/pic32mx/4.5.1/../../../../pic32mx/lib/libm.a(sincof32.o)
                              /home/opt/microchip/xc32/v1.00/bin/../lib/gcc/pic32mx/4.5.1/../../../../pic32mx/lib/libm.a(fpcos32.o) (_sincof)
/home/opt/microchip/xc32/v1.00/bin/../lib/gcc/pic32mx/4.5.1/../../../../pic32mx/lib/libm.a(s_lib_ver.o)
                              /home/opt/microchip/xc32/v1.00/bin/../lib/gcc/pic32mx/4.5.1/../../../../pic32mx/lib/libm.a(w_sqrtf.o) (math_errhandling)
/home/opt/microchip/xc32/v1.00/bin/../lib/gcc/pic32mx/4.5.1/../../../../pic32mx/lib/libm.a(cabs.o)
                              build/default/production/_ext/1494288313/KosselKinematics.o (hypotf)
/home/opt/microchip/xc32/v1.00/bin/../lib/gcc/pic32mx/4.5.1/../../../../pic32mx/lib/libm.a(support.o)
                              /home/opt/microchip/xc32/v1.00/bin/../lib/gcc/pic32mx/4.5.1/../../../../pic32mx/lib/libm.a(cabs.o) (copysign)
/home/opt/microchip/xc32/v1.00/bin/../lib/gcc/pic32mx/4.5.1/../../../../pic32mx/lib/libm.a(w_ldexp.o)
                              /home/opt/microchip/xc32/v1.00/bin/../lib/gcc/pic32mx/4.5.1/../../../../pic32mx/lib/libm.a(support.o) (ldexp)
/home/opt/microchip/xc32/v1.00/bin/../lib/gcc/pic32mx/4.5.1/../../../../pic32mx/lib/libm.a(w_sqrt.o)
                              /home/opt/microchip/xc32/v1.00/bin/../lib/gcc/pic32mx/4.5.1/../../../../pic32mx/lib/libm.a(cabs.o) (sqrt)
/home/opt/microchip/xc32/v1.00/bin/../lib/gcc/pic32mx/4.5.1/../../../../pic32mx/lib/libm.a(mod32.o)
                              /home/opt/microchip/xc32/v1.00/bin/../lib/gcc/pic32mx/4.5.1/../../../../pic32mx/lib/libm.a(w_ldexp.o) (__mchp_ldexp)
/home/opt/microchip/xc32/v1.00/bin/../lib/gcc/pic32mx/4.5.1/../../../../pic32mx/lib/libm.a(sqrt32.o)
                              /home/opt/microchip/xc32/v1.00/bin/../lib/gcc/pic32mx/4.5.1/../../../../pic32mx/lib/libm.a(w_sqrt.o) (__mchp_sqrt)
/home/opt/microchip/xc32/v1.00/bin/../lib/gcc/pic32mx/4.5.1/../../../../pic32mx/lib/libc.a(errno.o)
                              /home/opt/microchip/xc32/v1.00/bin/../lib/gcc/pic32mx/4.5.1/../../../../pic32mx/lib/libm.a(w_sqrtf.o) (errno)
/home/opt/microchip/xc32/v1.00/bin/../lib/gcc/pic32mx/4.5.1/../../../../pic32mx/lib/libc.a(isinf.o)
                              /home/opt/microchip/xc32/v1.00/bin/../lib/gcc/pic32mx/4.5.1/../../../../pic32mx/lib/libm.a(w_ldexp.o) (isinfl)
/home/opt/microchip/xc32/v1.00/bin/../lib/gcc/pic32mx/4.5.1/../../../../pic32mx/lib/libe.a(_unorddf2.o)
                              /home/opt/microchip/xc32/v1.00/bin/../lib/gcc/pic32mx/4.5.1/../../../../pic32mx/lib/libc.a(isinf.o) (__unorddf2)
/home/opt/microchip/xc32/v1.00/bin/../lib/gcc/pic32mx/4.5.1/../../../../pic32mx/lib/libmchp_peripheral_32MX440F128H.a(pcache.o)
                              build/default/production/_ext/1445274692/main.o (CheKseg0CacheOn)
/home/opt/microchip/xc32/v1.00/bin/../lib/gcc/pic32mx/4.5.1/../../../../pic32mx/lib/libmchp_peripheral_32MX440F128H.a(int_enable_interrupts_lib.o)
                              build/default/production/_ext/1487882678/usb_device.o (INTEnableInterrupts)
/home/opt/microchip/xc32/v1.00/bin/../lib/gcc/pic32mx/4.5.1/../../../../pic32mx/lib/libmchp_peripheral_32MX440F128H.a(int_disable_interrupts_lib.o)
                              build/default/production/_ext/1080174469/FIFO.o (INTDisableInterrupts)
/home/opt/microchip/xc32/v1.00/bin/../lib/gcc/pic32mx/4.5.1/../../../../pic32mx/lib/libmchp_peripheral_32MX440F128H.a(int_restore_interrupts_lib.o)
                              build/default/production/_ext/1445274692/main.o (INTRestoreInterrupts)
/home/opt/microchip/xc32/v1.00/bin/../lib/gcc/pic32mx/4.5.1/../../../../pic32mx/lib/libmchp_peripheral_32MX440F128H.a(int_enable_mv_int_lib.o)
                              build/default/production/_ext/1487882678/usb_fifo.o (INTEnableSystemMultiVectoredInt)
/home/opt/microchip/xc32/v1.00/bin/../lib/gcc/pic32mx/4.5.1/../../../../pic32mx/lib/libmchp_peripheral_32MX440F128H.a(int_tbl_lib.o)
                              build/default/production/_ext/2118813141/Bowler_UART_HAL.o (INTClearFlag)
/home/opt/microchip/xc32/v1.00/bin/../lib/gcc/pic32mx/4.5.1/../../../../pic32mx/lib/libmchp_peripheral_32MX440F128H.a(spi_chn_getc_lib.o)
                              build/default/production/_ext/263962707/SPIClient.o (SpiChnGetC)
/home/opt/microchip/xc32/v1.00/bin/../lib/gcc/pic32mx/4.5.1/../../../../pic32mx/lib/libmchp_peripheral_32MX440F128H.a(spi_chn_putc_lib.o)
                              build/default/production/_ext/263962707/SPIClient.o (SpiChnPutC)
/home/opt/microchip/xc32/v1.00/bin/../lib/gcc/pic32mx/4.5.1/../../../../pic32mx/lib/libmchp_peripheral_32MX440F128H.a(spi_map_tbl_libp.o)
                              /home/opt/microchip/xc32/v1.00/bin/../lib/gcc/pic32mx/4.5.1/../../../../pic32mx/lib/libmchp_peripheral_32MX440F128H.a(spi_chn_getc_lib.o) (_SpiMapTbl)
/home/opt/microchip/xc32/v1.00/bin/../lib/gcc/pic32mx/4.5.1/../../../../pic32mx/lib/libmchp_peripheral_32MX440F128H.a(spi_open_spi2_lib_legacy.o)
                              build/default/production/_ext/263962707/AS5055.o (OpenSPI2)
/home/opt/microchip/xc32/v1.00/bin/../lib/gcc/pic32mx/4.5.1/../../../../pic32mx/lib/libmchp_peripheral_32MX440F128H.a(spi_brg_tbl_lib_legacy.o)
                              /home/opt/microchip/xc32/v1.00/bin/../lib/gcc/pic32mx/4.5.1/../../../../pic32mx/lib/libmchp_peripheral_32MX440F128H.a(spi_open_spi2_lib_legacy.o) (_SpiBrgConvTbl)
/home/opt/microchip/xc32/v1.00/bin/../lib/gcc/pic32mx/4.5.1/../../../../pic32mx/lib/libmchp_peripheral_32MX440F128H.a(nvm_erase_page_lib.o)
                              build/default/production/_ext/2118813141/FlashStorage.o (NVMErasePage)
/home/opt/microchip/xc32/v1.00/bin/../lib/gcc/pic32mx/4.5.1/../../../../pic32mx/lib/libmchp_peripheral_32MX440F128H.a(nvm_operation_lib.o)
                              /home/opt/microchip/xc32/v1.00/bin/../lib/gcc/pic32mx/4.5.1/../../../../pic32mx/lib/libmchp_peripheral_32MX440F128H.a(nvm_erase_page_lib.o) (_NVMOperation)
/home/opt/microchip/xc32/v1.00/bin/../lib/gcc/pic32mx/4.5.1/../../../../pic32mx/lib/libmchp_peripheral_32MX440F128H.a(nvm_write_word_lib.o)
                              build/default/production/_ext/2118813141/FlashStorage.o (NVMWriteWord)
/home/opt/microchip/xc32/v1.00/bin/../lib/gcc/pic32mx/4.5.1/../../../../pic32mx/lib/libmchp_peripheral_32MX440F128H.a(port_set_pins_digital_out_lib.o)
                              build/default/production/_ext/2118813141/LED.o (PORTSetPinsDigitalOut)
/home/opt/microchip/xc32/v1.00/bin/../lib/gcc/pic32mx/4.5.1/../../../../pic32mx/lib/libmchp_peripheral_32MX440F128H.a(port_clear_bits_lib.o)
                              build/default/production/_ext/2118813141/LED.o (PORTClearBits)
/home/opt/microchip/xc32/v1.00/bin/../lib/gcc/pic32mx/4.5.1/../../../../pic32mx/lib/libmchp_peripheral_32MX440F128H.a(port_set_bits_lib.o)
                              build/default/production/_ext/2118813141/LED.o (PORTSetBits)
/home/opt/microchip/xc32/v1.00/bin/../lib/gcc/pic32mx/4.5.1/../../../../pic32mx/lib/libmchp_peripheral_32MX440F128H.a(_ports_tbl_libp.o)
                              /home/opt/microchip/xc32/v1.00/bin/../lib/gcc/pic32mx/4.5.1/../../../../pic32mx/lib/libmchp_peripheral_32MX440F128H.a(port_set_pins_digital_out_lib.o) (PortRegTbl)
/home/opt/microchip/xc32/v1.00/bin/../lib/gcc/pic32mx/4.5.1/../../../../pic32mx/lib/libmchp_peripheral_32MX440F128H.a(uart_lib.o)
                              build/default/production/_ext/2118813141/Bowler_UART_HAL.o (UARTEnable)

Allocating common symbols
Common symbol       size              file

pDst                0x4               build/default/production/_ext/1487882678/usb_device.o
packetFifo          0x18              build/default/production/_ext/1494288313/CartesianController.o
control_signal_bitmap
                    0x4               build/default/production/_ext/1487882678/usb_function_cdc.o
currentServo        0x4               build/default/production/_ext/263962707/Servo.o
BDT                 0x80              build/default/production/_ext/1487882678/usb_device.o
CtrlTrfData         0x40              build/default/production/_ext/1487882678/usb_device.o
resetPosition       0x4               build/default/production/_ext/1080174469/AbstractPID.o
MathCalculationVelocity
                    0x4               build/default/production/_ext/1080174469/AbstractPID.o
lastValue           0x4               build/default/production/_ext/263962707/Servo.o
cos120              0x4               build/default/production/_ext/1494288313/delta.o
USBDeviceState      0x4               build/default/production/_ext/1487882678/usb_device.o
sqrt3               0x4               build/default/production/_ext/1494288313/delta.o
controlTransferState
                    0x1               build/default/production/_ext/1487882678/usb_device.o
cdc_tx_len          0x2               build/default/production/_ext/1487882678/usb_function_cdc.o
USBInMaxPacketSize  0x6               build/default/production/_ext/1487882678/usb_device.o
pCDCSrc             0x4               build/default/production/_ext/1487882678/usb_function_cdc.o
intCartesian        0x30              build/default/production/_ext/1494288313/CartesianController.o
velData             0x4               build/default/production/_ext/1080174469/AbstractPID.o
MathCalculationPosition
                    0x4               build/default/production/_ext/1080174469/AbstractPID.o
position            0x20              build/default/production/_ext/263962707/Servo.o
cdc_data_tx         0x40              build/default/production/_ext/1487882678/usb_function_cdc.o
inPipes             0x7               build/default/production/_ext/1487882678/usb_device.o
pBDTEntryIn         0x10              build/default/production/_ext/1487882678/usb_device.o
overflow            0x2c              build/default/production/_ext/263962707/AS5055.o
CDCDataOutHandle    0x4               build/default/production/_ext/1487882678/usb_function_cdc.o
cdc_rx_len          0x2               build/default/production/_ext/1487882678/usb_function_cdc.o
linTmpPack          0x10a             build/default/production/_ext/1494288313/CartesianController.o
line_coding         0x8               build/default/production/_ext/1487882678/usb_function_cdc.o
state               0x4               build/default/production/_ext/519170017/servoCalibration.o
lastXYZE            0x10              build/default/production/_ext/1494288313/CartesianController.o
onPidConfigure      0x4               build/default/production/_ext/1080174469/AbstractPID.o
sin30               0x4               build/default/production/_ext/1494288313/delta.o
tmpData             0x10a             build/default/production/_ext/2048476848/Callbacks.o
sort                0x20              build/default/production/_ext/263962707/Servo.o
buffer              0x2990            build/default/production/_ext/1494288313/CartesianController.o
BaudRateGen         0x4               build/default/production/_ext/1487882678/usb_function_cdc.o
pBDTEntryOut        0x10              build/default/production/_ext/1487882678/usb_device.o
CDCDataInHandle     0x4               build/default/production/_ext/1487882678/usb_function_cdc.o
BothEP0OutUOWNsSet  0x4               build/default/production/_ext/1487882678/usb_device.o
cdc_data_rx         0x40              build/default/production/_ext/1487882678/usb_function_cdc.o
cdc_notice          0x8               build/default/production/_ext/1487882678/usb_function_cdc.o
velocity            0x80              build/default/production/_ext/263962707/Servo.o
pBDTEntryEP0OutNext
                    0x4               build/default/production/_ext/1487882678/usb_device.o
nextServo           0x4               build/default/production/_ext/263962707/Servo.o
nextValue           0x4               build/default/production/_ext/263962707/Servo.o
flash               0x50              build/default/production/_ext/2118813141/FlashStorage.o
raw                 0x2c              build/default/production/_ext/263962707/AS5055.o
cdc_trf_state       0x1               build/default/production/_ext/1487882678/usb_function_cdc.o
SetupPkt            0x8               build/default/production/_ext/1487882678/usb_device.o
pidGroups           0x4               build/default/production/_ext/1080174469/AbstractPID.o
pCDCDst             0x4               build/default/production/_ext/1487882678/usb_function_cdc.o
cdc_mem_type        0x1               build/default/production/_ext/1487882678/usb_function_cdc.o
setOutput           0x4               build/default/production/_ext/1080174469/AbstractPID.o
heaterLowpass       0x10              build/default/production/_ext/263962707/ForgeHeater.o
offset              0x2c              build/default/production/_ext/263962707/AS5055.o
diff                0x4               build/default/production/_ext/263962707/Servo.o
shortPacketStatus   0x1               build/default/production/_ext/1487882678/usb_device.o
pBDTEntryEP0OutCurrent
                    0x4               build/default/production/_ext/1487882678/usb_device.o
USBActiveConfiguration
                    0x1               build/default/production/_ext/1487882678/usb_device.o
RemoteWakeup        0x4               build/default/production/_ext/1487882678/usb_device.o
tan30               0x4               build/default/production/_ext/1494288313/delta.o
currentValue        0x4               build/default/production/_ext/263962707/Servo.o
pi                  0x4               build/default/production/_ext/1494288313/delta.o
sin120              0x4               build/default/production/_ext/1494288313/delta.o
recent              0x2c              build/default/production/_ext/263962707/AS5055.o
USTATcopy           0x1               build/default/production/_ext/1487882678/usb_device.o
heaterLowpassIndex  0x4               build/default/production/_ext/263962707/ForgeHeater.o
USBInData           0xc               build/default/production/_ext/1487882678/usb_device.o
USBAlternateInterface
                    0x1               build/default/production/_ext/1487882678/usb_device.o
outPipes            0xb               build/default/production/_ext/1487882678/usb_device.o
dummy_encapsulated_cmd_response
                    0x8               build/default/production/_ext/1487882678/usb_function_cdc.o
tan60               0x4               build/default/production/_ext/1494288313/delta.o
packetTemp          0x10a             build/default/production/_ext/1494288313/CartesianController.o
getPosition         0x4               build/default/production/_ext/1080174469/AbstractPID.o
checkPIDLimitEvents
                    0x4               build/default/production/_ext/1080174469/AbstractPID.o

Microchip PIC32 Memory-Usage Report

kseg0 Program-Memory Usage
section                    address  length [bytes]      (dec)  Description
-------                 ----------  -------------------------  -----------
.text                   0x9d000008        0x13674       79476  App's exec code 
.dinit                  0x9d01367c          0x828        2088   
.text                   0x9d013ea4         0x3438       13368  App's exec code 
.rodata                 0x9d0172dc          0xa74        2676  Read-only const 
.text                   0x9d017d50          0x9f8        2552  App's exec code 
.text.dreml             0x9d018748          0x488        1160   
.text                   0x9d018bd0          0xcec        3308  App's exec code 
.text.hypotl            0x9d0198bc          0x430        1072   
.text                   0x9d019cec          0x3a0         928  App's exec code 
.text.atan2f            0x9d01a08c          0x334         820   
.text                   0x9d01a3c0         0x1794        6036  App's exec code 
.rodata                 0x9d01bb54          0x308         776  Read-only const 
.text                   0x9d01be5c          0x150         336  App's exec code 
.text.logbl             0x9d01bfac          0x120         288   
.text                   0x9d01c0cc          0x22c         556  App's exec code 
.text._NVMOperation     0x9d01c2f8          0x114         276   
.text                   0x9d01c40c          0x108         264  App's exec code 
.rodata                 0x9d01c514           0xf8         248  Read-only const 
.text                   0x9d01c60c           0xec         236  App's exec code 
.text.general_exception 0x9d01c6f8           0xd0         208   
.text                   0x9d01c7c8           0xc4         196  App's exec code 
.rodata                 0x9d01c88c           0xb4         180  Read-only const 
.text                   0x9d01c940          0x200         512  App's exec code 
.rodata                 0x9d01cb40           0x90         144  Read-only const 
.text.isinf             0x9d01cbd0           0x88         136   
.text.isinff            0x9d01cc58           0x88         136   
.rodata                 0x9d01cce0          0x100         256  Read-only const 
.text.UARTEnable        0x9d01cde0           0x80         128   
.rodata                 0x9d01ce60           0x68         104  Read-only const 
.text.__unorddf2        0x9d01cec8           0x64         100   
.text.copysign          0x9d01cf2c           0x60          96   
.text.copysignf         0x9d01cf8c           0x60          96   
.text.ldexp             0x9d01cfec           0x60          96   
.text.sqrt              0x9d01d04c           0x60          96   
.text.OpenSPI2          0x9d01d0ac           0x60          96   
.rodata                 0x9d01d10c           0x5c          92  Read-only const 
.text.UARTSetDataRate   0x9d01d168           0x5c          92   
.text.INTEnable         0x9d01d1c4           0x58          88   
.rodata                 0x9d01d21c           0xe8         232  Read-only const 
.text.sqrtf             0x9d01d304           0x4c          76   
.text                   0x9d01d350           0x48          72  App's exec code 
.rodata                 0x9d01d398           0x8c         140  Read-only const 
.text.PORTSetPinsDigita 0x9d01d424           0x40          64   
.text.UARTGetDataRate   0x9d01d464           0x40          64   
.text.INTSetVectorPrior 0x9d01d4a4           0x3c          60   
.text.INTSetVectorSubPr 0x9d01d4e0           0x3c          60   
.text.UARTConfigure     0x9d01d51c           0x3c          60   
.text.UARTSetAddress    0x9d01d558           0x3c          60   
.rodata                 0x9d01d594           0x70         112  Read-only const 
.text.UARTWatchForAddre 0x9d01d604           0x38          56   
.rodata                 0x9d01d63c           0x34          52  Read-only const 
.text.copysignl         0x9d01d670           0x34          52   
.text.finite            0x9d01d6a4           0x34          52   
.text.finitef           0x9d01d6d8           0x34          52   
.text.isnan             0x9d01d70c           0x34          52   
.text.isnanf            0x9d01d740           0x34          52   
.text.INTEnableSystemMu 0x9d01d774           0x34          52   
.text.NVMWriteWord      0x9d01d7a8           0x34          52   
.text.INTGetVectorPrior 0x9d01d7dc           0x30          48   
.text.INTGetVectorSubPr 0x9d01d80c           0x30          48   
.text.SpiChnGetC        0x9d01d83c           0x30          48   
.text.SpiChnPutC        0x9d01d86c           0x30          48   
.text.INTClearFlag      0x9d01d89c           0x2c          44   
.text.INTSetFlag        0x9d01d8c8           0x2c          44   
.text.INTGetFlag        0x9d01d8f4           0x2c          44   
.text.INTGetEnable      0x9d01d920           0x2c          44   
.text.NVMErasePage      0x9d01d94c           0x2c          44   
.rodata                 0x9d01d978           0x78         120  Read-only const 
.text.hypot             0x9d01d9f0           0x28          40   
.text.hypotf            0x9d01da18           0x28          40   
.rodata                 0x9d01da40           0x28          40  Read-only const 
.text.logb              0x9d01da68           0x28          40   
.text.logbf             0x9d01da90           0x28          40   
.text.drem              0x9d01dab8           0x28          40   
.text.dremf             0x9d01dae0           0x28          40   
.text.isnanl            0x9d01db08           0x28          40   
.text.isinfl            0x9d01db30           0x28          40   
.text.PORTClearBits     0x9d01db58           0x28          40   
.text.PORTSetBits       0x9d01db80           0x28          40   
.text.UARTSetFifoMode   0x9d01dba8           0x28          40   
.text.UARTSetLineContro 0x9d01dbd0           0x28          40   
.rodata                 0x9d01dbf8           0x40          64  Read-only const 
.text.SpiChnReadC       0x9d01dc38           0x20          32   
.text.SpiChnWriteC      0x9d01dc58           0x20          32   
.rodata                 0x9d01dc78           0x1c          28  Read-only const 
.text.finitel           0x9d01dc94           0x1c          28   
.text.INTRestoreInterru 0x9d01dcb0           0x1c          28   
.text.SpiChnBuffer      0x9d01dccc           0x1c          28   
.rodata                 0x9d01dce8           0x30          48  Read-only const 
.text                   0x9d01dd18           0x18          24  App's exec code 
.text.CheKseg0CacheOff  0x9d01dd30           0x18          24   
.text.CheKseg0CacheOn   0x9d01dd48           0x18          24   
.rodata                 0x9d01dd60           0x14          20  Read-only const 
.text                   0x9d01dd74           0x10          16  App's exec code 
.rodata                 0x9d01dd84           0x1c          28  Read-only const 
.text._bootstrap_except 0x9d01dda0            0xc          12   
.text._on_reset         0x9d01ddac            0x8           8   
.text._on_bootstrap     0x9d01ddb4            0x8           8   
.rodata                 0x9d01ddbc            0x4           4  Read-only const 
.rodata                 0x9d01ddc0            0x8           8  Read-only const 
.text.INTEnableInterrup 0x9d01ddc8            0x8           8   
.text.INTDisableInterru 0x9d01ddd0            0x8           8   
.rodata                 0x9d01ddd8            0x8           8  Read-only const 
      Total kseg0_program_mem used  :     0x1ddd8      122328  93.3% of 0x20000

kseg0 Boot-Memory Usage
section                    address  length [bytes]      (dec)  Description
-------                 ----------  -------------------------  -----------
         Total kseg0_boot_mem used  :           0           0  <1% of 0x970

Exception-Memory Usage 
section                    address  length [bytes]      (dec)  Description
-------                 ----------  -------------------------  -----------
.app_excpt              0x9fc01180           0x10          16  General-Exception 
.vector_4               0x9fc01280            0x8           8  Interrupt Vector 4 
.vector_8               0x9fc01300            0x8           8  Interrupt Vector 8 
.vector_12              0x9fc01380            0x8           8  Interrupt Vector 12 
.vector_19              0x9fc01460            0x8           8  Interrupt Vector 19 
.vector_24              0x9fc01500            0x8           8  Interrupt Vector 24 
.vector_45              0x9fc017a0            0x8           8  Interrupt Vector 45 
          Total exception_mem used  :        0x40          64  1.6% of 0x1000

kseg1 Boot-Memory Usage
section                    address  length [bytes]      (dec)  Description
-------                 ----------  -------------------------  -----------
.reset                  0xbfc00000          0x1f4         500  Reset handler 
.bev_excpt              0xbfc00380           0x10          16  BEV-Exception 
         Total kseg1_boot_mem used  :       0x204         516  44.2% of 0x490
        --------------------------------------------------------------------------
         Total Program Memory used  :     0x1e01c      122908  88.6% of 0x21e00
        --------------------------------------------------------------------------


kseg1 Data-Memory Usage
section                    address  length [bytes]      (dec)  Description
-------                 ----------  -------------------------  -----------
.sdata                  0xa0000000           0xd8         216  Small init data 
.sbss                   0xa00000d8          0x190         400  Small uninit data 
.data                   0xa0000268          0x178         376  Initialized data 
.bss                    0xa00003e0           0x10          16  Uninitialized data 
.data.math_errhandling_ 0xa00003f0            0x4           4   
.bss                    0xa0000400         0x31d4       12756  Uninitialized data 
.bss                    0xa00035d4         0x12c4        4804  Uninitialized data 
.bss                    0xa0004898          0x270         624  Uninitialized data 
.data                   0xa0004b08          0x204         516  Initialized data 
.bss                    0xa0004d0c           0x80         128  Uninitialized data 
.data                   0xa0004d8c           0xfc         252  Initialized data 
         Total kseg1_data_mem used  :      0x4e7c       20092  61.3% of 0x8000
        --------------------------------------------------------------------------
            Total Data Memory used  :      0x4e7c       20092  61.3% of 0x8000
        --------------------------------------------------------------------------


Dynamic Data-Memory Reservation
section                    address  length [bytes]      (dec)  Description
-------                 ----------  -------------------------  -----------
heap                    0xa0004e90              0           0  Reserved for heap 
stack                   0xa0004ea8         0x3150       12624  Reserved for stack 

        --------------------------------------------------------------------------

Discarded input sections

 .reginfo       0x00000000       0x18 /home/opt/microchip/xc32/v1.00/bin/../lib/gcc/pic32mx/4.5.1/../../../../pic32mx/lib/crt0.o
 .pdr           0x00000000       0xa0 /home/opt/microchip/xc32/v1.00/bin/../lib/gcc/pic32mx/4.5.1/../../../../pic32mx/lib/crt0.o
 .reginfo       0x00000000       0x18 build/default/production/_ext/1487882678/usb_descriptors.o
 .pdr           0x00000000       0x60 build/default/production/_ext/1487882678/usb_descriptors.o
 .reginfo       0x00000000       0x18 build/default/production/_ext/1487882678/usb_function_cdc.o
 .pdr           0x00000000      0x100 build/default/production/_ext/1487882678/usb_function_cdc.o
 .reginfo       0x00000000       0x18 build/default/production/_ext/1487882678/usb_fifo.o
 .pdr           0x00000000      0x180 build/default/production/_ext/1487882678/usb_fifo.o
 .reginfo       0x00000000       0x18 build/default/production/_ext/1487882678/usb_callback.o
 .pdr           0x00000000      0x140 build/default/production/_ext/1487882678/usb_callback.o
 .reginfo       0x00000000       0x18 build/default/production/_ext/1487882678/usb_interrupt.o
 .pdr           0x00000000        0x0 build/default/production/_ext/1487882678/usb_interrupt.o
 .reginfo       0x00000000       0x18 build/default/production/_ext/1487882678/usb_device.o
 .pdr           0x00000000      0x360 build/default/production/_ext/1487882678/usb_device.o
 .reginfo       0x00000000       0x18 build/default/production/_ext/2118813141/Delay.o
 .pdr           0x00000000       0xa0 build/default/production/_ext/2118813141/Delay.o
 .reginfo       0x00000000       0x18 build/default/production/_ext/2118813141/FlashStorage.o
 .pdr           0x00000000      0x140 build/default/production/_ext/2118813141/FlashStorage.o
 .reginfo       0x00000000       0x18 build/default/production/_ext/2118813141/HAL_P32.o
 .pdr           0x00000000      0x140 build/default/production/_ext/2118813141/HAL_P32.o
 .reginfo       0x00000000       0x18 build/default/production/_ext/2118813141/LED.o
 .pdr           0x00000000       0xa0 build/default/production/_ext/2118813141/LED.o
 .reginfo       0x00000000       0x18 build/default/production/_ext/2118813141/Tick.o
 .pdr           0x00000000      0x100 build/default/production/_ext/2118813141/Tick.o
 .reginfo       0x00000000       0x18 build/default/production/_ext/2118813141/Bowler_UART_HAL.o
 .pdr           0x00000000      0x180 build/default/production/_ext/2118813141/Bowler_UART_HAL.o
 .reginfo       0x00000000       0x18 build/default/production/_ext/2118813141/UART.o
 .pdr           0x00000000       0x40 build/default/production/_ext/2118813141/UART.o
 .reginfo       0x00000000       0x18 build/default/production/_ext/2118813141/ADC.o
 .pdr           0x00000000       0x60 build/default/production/_ext/2118813141/ADC.o
 .reginfo       0x00000000       0x18 build/default/production/_ext/2118813141/Bowler_USB_HAL.o
 .pdr           0x00000000       0x60 build/default/production/_ext/2118813141/Bowler_USB_HAL.o
 .reginfo       0x00000000       0x18 build/default/production/_ext/1080174469/Bowler_Helper.o
 .pdr           0x00000000      0x1e0 build/default/production/_ext/1080174469/Bowler_Helper.o
 .reginfo       0x00000000       0x18 build/default/production/_ext/1080174469/AbstractPID.o
 .pdr           0x00000000      0x4a0 build/default/production/_ext/1080174469/AbstractPID.o
 .reginfo       0x00000000       0x18 build/default/production/_ext/1080174469/Bowler_Stack_Callback.o
 .pdr           0x00000000        0x0 build/default/production/_ext/1080174469/Bowler_Stack_Callback.o
 .reginfo       0x00000000       0x18 build/default/production/_ext/1080174469/FIFO.o
 .pdr           0x00000000      0x220 build/default/production/_ext/1080174469/FIFO.o
 .reginfo       0x00000000       0x18 build/default/production/_ext/1080174469/Bowler_RPC_Process.o
 .pdr           0x00000000       0x40 build/default/production/_ext/1080174469/Bowler_RPC_Process.o
 .reginfo       0x00000000       0x18 build/default/production/_ext/1080174469/Bowler_Transport.o
 .pdr           0x00000000      0x100 build/default/production/_ext/1080174469/Bowler_Transport.o
 .reginfo       0x00000000       0x18 build/default/production/_ext/1080174469/Debug.o
 .pdr           0x00000000      0x220 build/default/production/_ext/1080174469/Debug.o
 .reginfo       0x00000000       0x18 build/default/production/_ext/1080174469/Scheduler.o
 .pdr           0x00000000       0x20 build/default/production/_ext/1080174469/Scheduler.o
 .reginfo       0x00000000       0x18 build/default/production/_ext/1080174469/Bowler_Server.o
 .pdr           0x00000000       0x80 build/default/production/_ext/1080174469/Bowler_Server.o
 .reginfo       0x00000000       0x18 build/default/production/_ext/1080174469/Namespace_bcs_core.o
 .pdr           0x00000000      0x160 build/default/production/_ext/1080174469/Namespace_bcs_core.o
 .reginfo       0x00000000       0x18 build/default/production/_ext/1080174469/Namespace_bcs_pid.o
 .pdr           0x00000000       0x40 build/default/production/_ext/1080174469/Namespace_bcs_pid.o
 .reginfo       0x00000000       0x18 build/default/production/_ext/1080174469/Namespace_bcs_rpc.o
 .pdr           0x00000000       0x60 build/default/production/_ext/1080174469/Namespace_bcs_rpc.o
 .reginfo       0x00000000       0x18 build/default/production/_ext/263962707/Servo.o
 .pdr           0x00000000      0x200 build/default/production/_ext/263962707/Servo.o
 .reginfo       0x00000000       0x18 build/default/production/_ext/263962707/SPIClient.o
 .pdr           0x00000000       0x40 build/default/production/_ext/263962707/SPIClient.o
 .reginfo       0x00000000       0x18 build/default/production/_ext/263962707/ForgeHeater.o
 .pdr           0x00000000      0x100 build/default/production/_ext/263962707/ForgeHeater.o
 .reginfo       0x00000000       0x18 build/default/production/_ext/263962707/AS5055.o
 .pdr           0x00000000      0x1a0 build/default/production/_ext/263962707/AS5055.o
 .reginfo       0x00000000       0x18 build/default/production/_ext/1494288313/KosselKinematics.o
 .pdr           0x00000000       0x20 build/default/production/_ext/1494288313/KosselKinematics.o
 .reginfo       0x00000000       0x18 build/default/production/_ext/1494288313/CartesianController.o
 .pdr           0x00000000      0x280 build/default/production/_ext/1494288313/CartesianController.o
 .reginfo       0x00000000       0x18 build/default/production/_ext/1494288313/DeltaKinematics.o
 .pdr           0x00000000        0x0 build/default/production/_ext/1494288313/DeltaKinematics.o
 .reginfo       0x00000000       0x18 build/default/production/_ext/1494288313/delta.o
 .pdr           0x00000000       0xa0 build/default/production/_ext/1494288313/delta.o
 .reginfo       0x00000000       0x18 build/default/production/_ext/519170017/MotionTest.o
 .pdr           0x00000000        0x0 build/default/production/_ext/519170017/MotionTest.o
 .reginfo       0x00000000       0x18 build/default/production/_ext/519170017/Calibration.o
 .pdr           0x00000000        0x0 build/default/production/_ext/519170017/Calibration.o
 .reginfo       0x00000000       0x18 build/default/production/_ext/519170017/StepperSim.o
 .pdr           0x00000000       0x80 build/default/production/_ext/519170017/StepperSim.o
 .reginfo       0x00000000       0x18 build/default/production/_ext/519170017/servoCalibration.o
 .pdr           0x00000000      0x100 build/default/production/_ext/519170017/servoCalibration.o
 .reginfo       0x00000000       0x18 build/default/production/_ext/519170017/PID.o
 .pdr           0x00000000      0x160 build/default/production/_ext/519170017/PID.o
 .reginfo       0x00000000       0x18 build/default/production/_ext/2048476848/UpstreamPackets.o
 .pdr           0x00000000       0x60 build/default/production/_ext/2048476848/UpstreamPackets.o
 .reginfo       0x00000000       0x18 build/default/production/_ext/2048476848/Namespace_bcs_cartesian.o
 .pdr           0x00000000       0x40 build/default/production/_ext/2048476848/Namespace_bcs_cartesian.o
 .reginfo       0x00000000       0x18 build/default/production/_ext/2048476848/Callbacks.o
 .pdr           0x00000000       0x60 build/default/production/_ext/2048476848/Callbacks.o
 .reginfo       0x00000000       0x18 build/default/production/_ext/1445274692/main.o
 .pdr           0x00000000       0xe0 build/default/production/_ext/1445274692/main.o
 .reginfo       0x00000000       0x18 /home/opt/microchip/xc32/v1.00/bin/../lib/gcc/pic32mx/4.5.1/libgcc.a(floatunsisf.o)
 .pdr           0x00000000       0x20 /home/opt/microchip/xc32/v1.00/bin/../lib/gcc/pic32mx/4.5.1/libgcc.a(floatunsisf.o)
 .reginfo       0x00000000       0x18 /home/opt/microchip/xc32/v1.00/bin/../lib/gcc/pic32mx/4.5.1/../../../../pic32mx/lib/libc.a(memset.o)
 .pdr           0x00000000       0x20 /home/opt/microchip/xc32/v1.00/bin/../lib/gcc/pic32mx/4.5.1/../../../../pic32mx/lib/libc.a(memset.o)
 .reginfo       0x00000000       0x18 /home/opt/microchip/xc32/v1.00/bin/../lib/gcc/pic32mx/4.5.1/../../../../pic32mx/lib/libc.a(general-exception.o)
 .pdr           0x00000000       0x20 /home/opt/microchip/xc32/v1.00/bin/../lib/gcc/pic32mx/4.5.1/../../../../pic32mx/lib/libc.a(general-exception.o)
 .reginfo       0x00000000       0x18 /home/opt/microchip/xc32/v1.00/bin/../lib/gcc/pic32mx/4.5.1/../../../../pic32mx/lib/libc.a(default-bootstrap-exception-handler.o)
 .pdr           0x00000000       0x20 /home/opt/microchip/xc32/v1.00/bin/../lib/gcc/pic32mx/4.5.1/../../../../pic32mx/lib/libc.a(default-bootstrap-exception-handler.o)
 .reginfo       0x00000000       0x18 /home/opt/microchip/xc32/v1.00/bin/../lib/gcc/pic32mx/4.5.1/../../../../pic32mx/lib/libc.a(default-on-reset.o)
 .pdr           0x00000000       0x20 /home/opt/microchip/xc32/v1.00/bin/../lib/gcc/pic32mx/4.5.1/../../../../pic32mx/lib/libc.a(default-on-reset.o)
 .reginfo       0x00000000       0x18 /home/opt/microchip/xc32/v1.00/bin/../lib/gcc/pic32mx/4.5.1/../../../../pic32mx/lib/libc.a(default-on-bootstrap.o)
 .pdr           0x00000000       0x20 /home/opt/microchip/xc32/v1.00/bin/../lib/gcc/pic32mx/4.5.1/../../../../pic32mx/lib/libc.a(default-on-bootstrap.o)
 .reginfo       0x00000000       0x18 /home/opt/microchip/xc32/v1.00/bin/../lib/gcc/pic32mx/4.5.1/../../../../pic32mx/lib/libc.a(default-nmi-handler.o)
 .pdr           0x00000000       0x20 /home/opt/microchip/xc32/v1.00/bin/../lib/gcc/pic32mx/4.5.1/../../../../pic32mx/lib/libc.a(default-nmi-handler.o)
 .reginfo       0x00000000       0x18 /home/opt/microchip/xc32/v1.00/bin/../lib/gcc/pic32mx/4.5.1/../../../../pic32mx/lib/libm.a(w_atan2f.o)
 .pdr           0x00000000       0x20 /home/opt/microchip/xc32/v1.00/bin/../lib/gcc/pic32mx/4.5.1/../../../../pic32mx/lib/libm.a(w_atan2f.o)
 .reginfo       0x00000000       0x18 /home/opt/microchip/xc32/v1.00/bin/../lib/gcc/pic32mx/4.5.1/../../../../pic32mx/lib/libm.a(fparc32.o)
 .pdr           0x00000000        0x0 /home/opt/microchip/xc32/v1.00/bin/../lib/gcc/pic32mx/4.5.1/../../../../pic32mx/lib/libm.a(fparc32.o)
 .reginfo       0x00000000       0x18 /home/opt/microchip/xc32/v1.00/bin/../lib/gcc/pic32mx/4.5.1/../../../../pic32mx/lib/libm.a(fpfloo32.o)
 .pdr           0x00000000        0x0 /home/opt/microchip/xc32/v1.00/bin/../lib/gcc/pic32mx/4.5.1/../../../../pic32mx/lib/libm.a(fpfloo32.o)
 .reginfo       0x00000000       0x18 /home/opt/microchip/xc32/v1.00/bin/../lib/gcc/pic32mx/4.5.1/../../../../pic32mx/lib/libm.a(dp32.o)
 .pdr           0x00000000        0x0 /home/opt/microchip/xc32/v1.00/bin/../lib/gcc/pic32mx/4.5.1/../../../../pic32mx/lib/libm.a(dp32.o)
 .reginfo       0x00000000       0x18 /home/opt/microchip/xc32/v1.00/bin/../lib/gcc/pic32mx/4.5.1/../../../../pic32mx/lib/libm.a(fpsqrt32.o)
 .pdr           0x00000000        0x0 /home/opt/microchip/xc32/v1.00/bin/../lib/gcc/pic32mx/4.5.1/../../../../pic32mx/lib/libm.a(fpsqrt32.o)
 .reginfo       0x00000000       0x18 /home/opt/microchip/xc32/v1.00/bin/../lib/gcc/pic32mx/4.5.1/../../../../pic32mx/lib/libm.a(w_sqrtf.o)
 .pdr           0x00000000       0x20 /home/opt/microchip/xc32/v1.00/bin/../lib/gcc/pic32mx/4.5.1/../../../../pic32mx/lib/libm.a(w_sqrtf.o)
 .reginfo       0x00000000       0x18 /home/opt/microchip/xc32/v1.00/bin/../lib/gcc/pic32mx/4.5.1/../../../../pic32mx/lib/libm.a(fp32.o)
 .pdr           0x00000000        0x0 /home/opt/microchip/xc32/v1.00/bin/../lib/gcc/pic32mx/4.5.1/../../../../pic32mx/lib/libm.a(fp32.o)
 .reginfo       0x00000000       0x18 /home/opt/microchip/xc32/v1.00/bin/../lib/gcc/pic32mx/4.5.1/../../../../pic32mx/lib/libm.a(fpcos32.o)
 .pdr           0x00000000        0x0 /home/opt/microchip/xc32/v1.00/bin/../lib/gcc/pic32mx/4.5.1/../../../../pic32mx/lib/libm.a(fpcos32.o)
 .reginfo       0x00000000       0x18 /home/opt/microchip/xc32/v1.00/bin/../lib/gcc/pic32mx/4.5.1/../../../../pic32mx/lib/libm.a(fpsin32.o)
 .pdr           0x00000000        0x0 /home/opt/microchip/xc32/v1.00/bin/../lib/gcc/pic32mx/4.5.1/../../../../pic32mx/lib/libm.a(fpsin32.o)
 .reginfo       0x00000000       0x18 /home/opt/microchip/xc32/v1.00/bin/../lib/gcc/pic32mx/4.5.1/../../../../pic32mx/lib/libm.a(fpreduct32.o)
 .pdr           0x00000000        0x0 /home/opt/microchip/xc32/v1.00/bin/../lib/gcc/pic32mx/4.5.1/../../../../pic32mx/lib/libm.a(fpreduct32.o)
 .reginfo       0x00000000       0x18 /home/opt/microchip/xc32/v1.00/bin/../lib/gcc/pic32mx/4.5.1/../../../../pic32mx/lib/libm.a(sincof32.o)
 .pdr           0x00000000        0x0 /home/opt/microchip/xc32/v1.00/bin/../lib/gcc/pic32mx/4.5.1/../../../../pic32mx/lib/libm.a(sincof32.o)
 .reginfo       0x00000000       0x18 /home/opt/microchip/xc32/v1.00/bin/../lib/gcc/pic32mx/4.5.1/../../../../pic32mx/lib/libm.a(s_lib_ver.o)
 .pdr           0x00000000        0x0 /home/opt/microchip/xc32/v1.00/bin/../lib/gcc/pic32mx/4.5.1/../../../../pic32mx/lib/libm.a(s_lib_ver.o)
 .reginfo       0x00000000       0x18 /home/opt/microchip/xc32/v1.00/bin/../lib/gcc/pic32mx/4.5.1/../../../../pic32mx/lib/libm.a(cabs.o)
 .pdr           0x00000000       0x60 /home/opt/microchip/xc32/v1.00/bin/../lib/gcc/pic32mx/4.5.1/../../../../pic32mx/lib/libm.a(cabs.o)
 .reginfo       0x00000000       0x18 /home/opt/microchip/xc32/v1.00/bin/../lib/gcc/pic32mx/4.5.1/../../../../pic32mx/lib/libm.a(support.o)
 .pdr           0x00000000      0x180 /home/opt/microchip/xc32/v1.00/bin/../lib/gcc/pic32mx/4.5.1/../../../../pic32mx/lib/libm.a(support.o)
 .reginfo       0x00000000       0x18 /home/opt/microchip/xc32/v1.00/bin/../lib/gcc/pic32mx/4.5.1/../../../../pic32mx/lib/libm.a(w_ldexp.o)
 .pdr           0x00000000       0x20 /home/opt/microchip/xc32/v1.00/bin/../lib/gcc/pic32mx/4.5.1/../../../../pic32mx/lib/libm.a(w_ldexp.o)
 .reginfo       0x00000000       0x18 /home/opt/microchip/xc32/v1.00/bin/../lib/gcc/pic32mx/4.5.1/../../../../pic32mx/lib/libm.a(w_sqrt.o)
 .pdr           0x00000000       0x20 /home/opt/microchip/xc32/v1.00/bin/../lib/gcc/pic32mx/4.5.1/../../../../pic32mx/lib/libm.a(w_sqrt.o)
 .reginfo       0x00000000       0x18 /home/opt/microchip/xc32/v1.00/bin/../lib/gcc/pic32mx/4.5.1/../../../../pic32mx/lib/libm.a(mod32.o)
 .pdr           0x00000000        0x0 /home/opt/microchip/xc32/v1.00/bin/../lib/gcc/pic32mx/4.5.1/../../../../pic32mx/lib/libm.a(mod32.o)
 .reginfo       0x00000000       0x18 /home/opt/microchip/xc32/v1.00/bin/../lib/gcc/pic32mx/4.5.1/../../../../pic32mx/lib/libm.a(sqrt32.o)
 .pdr           0x00000000        0x0 /home/opt/microchip/xc32/v1.00/bin/../lib/gcc/pic32mx/4.5.1/../../../../pic32mx/lib/libm.a(sqrt32.o)
 .reginfo       0x00000000       0x18 /home/opt/microchip/xc32/v1.00/bin/../lib/gcc/pic32mx/4.5.1/../../../../pic32mx/lib/libc.a(errno.o)
 .pdr           0x00000000        0x0 /home/opt/microchip/xc32/v1.00/bin/../lib/gcc/pic32mx/4.5.1/../../../../pic32mx/lib/libc.a(errno.o)
 .reginfo       0x00000000       0x18 /home/opt/microchip/xc32/v1.00/bin/../lib/gcc/pic32mx/4.5.1/../../../../pic32mx/lib/libc.a(isinf.o)
 .pdr           0x00000000       0xc0 /home/opt/microchip/xc32/v1.00/bin/../lib/gcc/pic32mx/4.5.1/../../../../pic32mx/lib/libc.a(isinf.o)
 .reginfo       0x00000000       0x18 /home/opt/microchip/xc32/v1.00/bin/../lib/gcc/pic32mx/4.5.1/../../../../pic32mx/lib/libe.a(_unorddf2.o)
 .pdr           0x00000000       0x20 /home/opt/microchip/xc32/v1.00/bin/../lib/gcc/pic32mx/4.5.1/../../../../pic32mx/lib/libe.a(_unorddf2.o)
 .reginfo       0x00000000       0x18 /home/opt/microchip/xc32/v1.00/bin/../lib/gcc/pic32mx/4.5.1/../../../../pic32mx/lib/./proc/32MX440F128H/processor.o
 .pdr           0x00000000        0x0 /home/opt/microchip/xc32/v1.00/bin/../lib/gcc/pic32mx/4.5.1/../../../../pic32mx/lib/./proc/32MX440F128H/processor.o
 .reginfo       0x00000000       0x18 /home/opt/microchip/xc32/v1.00/bin/../lib/gcc/pic32mx/4.5.1/../../../../pic32mx/lib/libmchp_peripheral_32MX440F128H.a(pcache.o)
 .pdr           0x00000000       0x40 /home/opt/microchip/xc32/v1.00/bin/../lib/gcc/pic32mx/4.5.1/../../../../pic32mx/lib/libmchp_peripheral_32MX440F128H.a(pcache.o)
 .reginfo       0x00000000       0x18 /home/opt/microchip/xc32/v1.00/bin/../lib/gcc/pic32mx/4.5.1/../../../../pic32mx/lib/libmchp_peripheral_32MX440F128H.a(int_enable_interrupts_lib.o)
 .pdr           0x00000000       0x20 /home/opt/microchip/xc32/v1.00/bin/../lib/gcc/pic32mx/4.5.1/../../../../pic32mx/lib/libmchp_peripheral_32MX440F128H.a(int_enable_interrupts_lib.o)
 .reginfo       0x00000000       0x18 /home/opt/microchip/xc32/v1.00/bin/../lib/gcc/pic32mx/4.5.1/../../../../pic32mx/lib/libmchp_peripheral_32MX440F128H.a(int_disable_interrupts_lib.o)
 .pdr           0x00000000       0x20 /home/opt/microchip/xc32/v1.00/bin/../lib/gcc/pic32mx/4.5.1/../../../../pic32mx/lib/libmchp_peripheral_32MX440F128H.a(int_disable_interrupts_lib.o)
 .reginfo       0x00000000       0x18 /home/opt/microchip/xc32/v1.00/bin/../lib/gcc/pic32mx/4.5.1/../../../../pic32mx/lib/libmchp_peripheral_32MX440F128H.a(int_restore_interrupts_lib.o)
 .pdr           0x00000000       0x20 /home/opt/microchip/xc32/v1.00/bin/../lib/gcc/pic32mx/4.5.1/../../../../pic32mx/lib/libmchp_peripheral_32MX440F128H.a(int_restore_interrupts_lib.o)
 .reginfo       0x00000000       0x18 /home/opt/microchip/xc32/v1.00/bin/../lib/gcc/pic32mx/4.5.1/../../../../pic32mx/lib/libmchp_peripheral_32MX440F128H.a(int_enable_mv_int_lib.o)
 .pdr           0x00000000       0x20 /home/opt/microchip/xc32/v1.00/bin/../lib/gcc/pic32mx/4.5.1/../../../../pic32mx/lib/libmchp_peripheral_32MX440F128H.a(int_enable_mv_int_lib.o)
 .reginfo       0x00000000       0x18 /home/opt/microchip/xc32/v1.00/bin/../lib/gcc/pic32mx/4.5.1/../../../../pic32mx/lib/libmchp_peripheral_32MX440F128H.a(int_tbl_lib.o)
 .pdr           0x00000000      0x120 /home/opt/microchip/xc32/v1.00/bin/../lib/gcc/pic32mx/4.5.1/../../../../pic32mx/lib/libmchp_peripheral_32MX440F128H.a(int_tbl_lib.o)
 .reginfo       0x00000000       0x18 /home/opt/microchip/xc32/v1.00/bin/../lib/gcc/pic32mx/4.5.1/../../../../pic32mx/lib/libmchp_peripheral_32MX440F128H.a(spi_chn_getc_lib.o)
 .pdr           0x00000000       0x40 /home/opt/microchip/xc32/v1.00/bin/../lib/gcc/pic32mx/4.5.1/../../../../pic32mx/lib/libmchp_peripheral_32MX440F128H.a(spi_chn_getc_lib.o)
 .reginfo       0x00000000       0x18 /home/opt/microchip/xc32/v1.00/bin/../lib/gcc/pic32mx/4.5.1/../../../../pic32mx/lib/libmchp_peripheral_32MX440F128H.a(spi_chn_putc_lib.o)
 .pdr           0x00000000       0x60 /home/opt/microchip/xc32/v1.00/bin/../lib/gcc/pic32mx/4.5.1/../../../../pic32mx/lib/libmchp_peripheral_32MX440F128H.a(spi_chn_putc_lib.o)
 .reginfo       0x00000000       0x18 /home/opt/microchip/xc32/v1.00/bin/../lib/gcc/pic32mx/4.5.1/../../../../pic32mx/lib/libmchp_peripheral_32MX440F128H.a(spi_map_tbl_libp.o)
 .pdr           0x00000000        0x0 /home/opt/microchip/xc32/v1.00/bin/../lib/gcc/pic32mx/4.5.1/../../../../pic32mx/lib/libmchp_peripheral_32MX440F128H.a(spi_map_tbl_libp.o)
 .reginfo       0x00000000       0x18 /home/opt/microchip/xc32/v1.00/bin/../lib/gcc/pic32mx/4.5.1/../../../../pic32mx/lib/libmchp_peripheral_32MX440F128H.a(spi_open_spi2_lib_legacy.o)
 .pdr           0x00000000       0x20 /home/opt/microchip/xc32/v1.00/bin/../lib/gcc/pic32mx/4.5.1/../../../../pic32mx/lib/libmchp_peripheral_32MX440F128H.a(spi_open_spi2_lib_legacy.o)
 .reginfo       0x00000000       0x18 /home/opt/microchip/xc32/v1.00/bin/../lib/gcc/pic32mx/4.5.1/../../../../pic32mx/lib/libmchp_peripheral_32MX440F128H.a(spi_brg_tbl_lib_legacy.o)
 .pdr           0x00000000        0x0 /home/opt/microchip/xc32/v1.00/bin/../lib/gcc/pic32mx/4.5.1/../../../../pic32mx/lib/libmchp_peripheral_32MX440F128H.a(spi_brg_tbl_lib_legacy.o)
 .reginfo       0x00000000       0x18 /home/opt/microchip/xc32/v1.00/bin/../lib/gcc/pic32mx/4.5.1/../../../../pic32mx/lib/libmchp_peripheral_32MX440F128H.a(nvm_erase_page_lib.o)
 .pdr           0x00000000       0x20 /home/opt/microchip/xc32/v1.00/bin/../lib/gcc/pic32mx/4.5.1/../../../../pic32mx/lib/libmchp_peripheral_32MX440F128H.a(nvm_erase_page_lib.o)
 .reginfo       0x00000000       0x18 /home/opt/microchip/xc32/v1.00/bin/../lib/gcc/pic32mx/4.5.1/../../../../pic32mx/lib/libmchp_peripheral_32MX440F128H.a(nvm_operation_lib.o)
 .pdr           0x00000000       0x20 /home/opt/microchip/xc32/v1.00/bin/../lib/gcc/pic32mx/4.5.1/../../../../pic32mx/lib/libmchp_peripheral_32MX440F128H.a(nvm_operation_lib.o)
 .reginfo       0x00000000       0x18 /home/opt/microchip/xc32/v1.00/bin/../lib/gcc/pic32mx/4.5.1/../../../../pic32mx/lib/libmchp_peripheral_32MX440F128H.a(nvm_write_word_lib.o)
 .pdr           0x00000000       0x20 /home/opt/microchip/xc32/v1.00/bin/../lib/gcc/pic32mx/4.5.1/../../../../pic32mx/lib/libmchp_peripheral_32MX440F128H.a(nvm_write_word_lib.o)
 .reginfo       0x00000000       0x18 /home/opt/microchip/xc32/v1.00/bin/../lib/gcc/pic32mx/4.5.1/../../../../pic32mx/lib/libmchp_peripheral_32MX440F128H.a(port_set_pins_digital_out_lib.o)
 .pdr           0x00000000       0x20 /home/opt/microchip/xc32/v1.00/bin/../lib/gcc/pic32mx/4.5.1/../../../../pic32mx/lib/libmchp_peripheral_32MX440F128H.a(port_set_pins_digital_out_lib.o)
 .reginfo       0x00000000       0x18 /home/opt/microchip/xc32/v1.00/bin/../lib/gcc/pic32mx/4.5.1/../../../../pic32mx/lib/libmchp_peripheral_32MX440F128H.a(port_clear_bits_lib.o)
 .pdr           0x00000000       0x20 /home/opt/microchip/xc32/v1.00/bin/../lib/gcc/pic32mx/4.5.1/../../../../pic32mx/lib/libmchp_peripheral_32MX440F128H.a(port_clear_bits_lib.o)
 .reginfo       0x00000000       0x18 /home/opt/microchip/xc32/v1.00/bin/../lib/gcc/pic32mx/4.5.1/../../../../pic32mx/lib/libmchp_peripheral_32MX440F128H.a(port_set_bits_lib.o)
 .pdr           0x00000000       0x20 /home/opt/microchip/xc32/v1.00/bin/../lib/gcc/pic32mx/4.5.1/../../../../pic32mx/lib/libmchp_peripheral_32MX440F128H.a(port_set_bits_lib.o)
 .reginfo       0x00000000       0x18 /home/opt/microchip/xc32/v1.00/bin/../lib/gcc/pic32mx/4.5.1/../../../../pic32mx/lib/libmchp_peripheral_32MX440F128H.a(_ports_tbl_libp.o)
 .pdr           0x00000000        0x0 /home/opt/microchip/xc32/v1.00/bin/../lib/gcc/pic32mx/4.5.1/../../../../pic32mx/lib/libmchp_peripheral_32MX440F128H.a(_ports_tbl_libp.o)
 .reginfo       0x00000000       0x18 /home/opt/microchip/xc32/v1.00/bin/../lib/gcc/pic32mx/4.5.1/../../../../pic32mx/lib/libmchp_peripheral_32MX440F128H.a(uart_lib.o)
 .pdr           0x00000000      0x100 /home/opt/microchip/xc32/v1.00/bin/../lib/gcc/pic32mx/4.5.1/../../../../pic32mx/lib/libmchp_peripheral_32MX440F128H.a(uart_lib.o)

Memory Configuration

Name             Origin             Length             Attributes
kseg0_program_mem 0x9d000000         0x00020000         xr
kseg0_boot_mem   0x9fc00490         0x00000970
exception_mem    0x9fc01000         0x00001000
kseg1_boot_mem   0xbfc00000         0x00000490
debug_exec_mem   0xbfc02000         0x00000ff0
config3          0xbfc02ff0         0x00000004
config2          0xbfc02ff4         0x00000004
config1          0xbfc02ff8         0x00000004
config0          0xbfc02ffc         0x00000004
kseg1_data_mem   0xa0000000         0x00008000         w !x
sfrs             0xbf800000         0x00100000
configsfrs       0xbfc02ff0         0x00000010
*default*        0x00000000         0xffffffff

Linker script and memory map

LOAD /home/opt/microchip/xc32/v1.00/bin/../lib/gcc/pic32mx/4.5.1/../../../../pic32mx/lib/crt0.o
LOAD build/default/production/_ext/1487882678/usb_descriptors.o
LOAD build/default/production/_ext/1487882678/usb_function_cdc.o
LOAD build/default/production/_ext/1487882678/usb_fifo.o
LOAD build/default/production/_ext/1487882678/usb_callback.o
LOAD build/default/production/_ext/1487882678/usb_interrupt.o
LOAD build/default/production/_ext/1487882678/usb_device.o
LOAD build/default/production/_ext/2118813141/Delay.o
LOAD build/default/production/_ext/2118813141/FlashStorage.o
LOAD build/default/production/_ext/2118813141/HAL_P32.o
LOAD build/default/production/_ext/2118813141/LED.o
LOAD build/default/production/_ext/2118813141/Tick.o
LOAD build/default/production/_ext/2118813141/Bowler_UART_HAL.o
LOAD build/default/production/_ext/2118813141/UART.o
LOAD build/default/production/_ext/2118813141/ADC.o
LOAD build/default/production/_ext/2118813141/Bowler_USB_HAL.o
LOAD build/default/production/_ext/1080174469/Bowler_Helper.o
LOAD build/default/production/_ext/1080174469/AbstractPID.o
LOAD build/default/production/_ext/1080174469/Bowler_Stack_Callback.o
LOAD build/default/production/_ext/1080174469/FIFO.o
LOAD build/default/production/_ext/1080174469/Bowler_RPC_Process.o
LOAD build/default/production/_ext/1080174469/Bowler_Transport.o
LOAD build/default/production/_ext/1080174469/Debug.o
LOAD build/default/production/_ext/1080174469/Scheduler.o
LOAD build/default/production/_ext/1080174469/Bowler_Server.o
LOAD build/default/production/_ext/1080174469/Namespace_bcs_core.o
LOAD build/default/production/_ext/1080174469/Namespace_bcs_pid.o
LOAD build/default/production/_ext/1080174469/Namespace_bcs_rpc.o
LOAD build/default/production/_ext/263962707/Servo.o
LOAD build/default/production/_ext/263962707/SPIClient.o
LOAD build/default/production/_ext/263962707/ForgeHeater.o
LOAD build/default/production/_ext/263962707/AS5055.o
LOAD build/default/production/_ext/1494288313/KosselKinematics.o
LOAD build/default/production/_ext/1494288313/CartesianController.o
LOAD build/default/production/_ext/1494288313/DeltaKinematics.o
LOAD build/default/production/_ext/1494288313/delta.o
LOAD build/default/production/_ext/519170017/MotionTest.o
LOAD build/default/production/_ext/519170017/Calibration.o
LOAD build/default/production/_ext/519170017/StepperSim.o
LOAD build/default/production/_ext/519170017/servoCalibration.o
LOAD build/default/production/_ext/519170017/PID.o
LOAD build/default/production/_ext/2048476848/UpstreamPackets.o
LOAD build/default/production/_ext/2048476848/Namespace_bcs_cartesian.o
LOAD build/default/production/_ext/2048476848/Callbacks.o
LOAD build/default/production/_ext/1445274692/main.o
                0x00000001                __MPLAB_BUILD = 0x1
LOAD /home/opt/microchip/xc32/v1.00/bin/../lib/gcc/pic32mx/4.5.1/libgcc.a
START GROUP
LOAD /home/opt/microchip/xc32/v1.00/bin/../lib/gcc/pic32mx/4.5.1/../../../../pic32mx/lib/libdebug.a
LOAD /home/opt/microchip/xc32/v1.00/bin/../lib/gcc/pic32mx/4.5.1/../../../../pic32mx/lib/libc.a
LOAD /home/opt/microchip/xc32/v1.00/bin/../lib/gcc/pic32mx/4.5.1/../../../../pic32mx/lib/libm.a
LOAD /home/opt/microchip/xc32/v1.00/bin/../lib/gcc/pic32mx/4.5.1/../../../../pic32mx/lib/libe.a
LOAD /home/opt/microchip/xc32/v1.00/bin/../lib/gcc/pic32mx/4.5.1/../../../../pic32mx/lib/libdsp.a
END GROUP
LOAD /home/opt/microchip/xc32/v1.00/bin/../lib/gcc/pic32mx/4.5.1/libgcc.a
                0x00000400                PROVIDE (_min_stack_size, 0x400)
                0x00000000                PROVIDE (_min_heap_size, 0x0)
LOAD /home/opt/microchip/xc32/v1.00/bin/../lib/gcc/pic32mx/4.5.1/../../../../pic32mx/lib/./proc/32MX440F128H/processor.o
START GROUP
LOAD /home/opt/microchip/xc32/v1.00/bin/../lib/gcc/pic32mx/4.5.1/../../../../pic32mx/lib/libmchp_peripheral.a
END GROUP
START GROUP
LOAD /home/opt/microchip/xc32/v1.00/bin/../lib/gcc/pic32mx/4.5.1/../../../../pic32mx/lib/libmchp_peripheral_32MX440F128H.a
END GROUP
                0x00000001                PROVIDE (_vector_spacing, 0x1)
                0x9fc01000                _ebase_address = 0x9fc01000
                0xbfc00000                _RESET_ADDR = 0xbfc00000
                0xbfc00380                _BEV_EXCPT_ADDR = 0xbfc00380
                0xbfc00480                _DBG_EXCPT_ADDR = 0xbfc00480
                0xbfc02000                _DBG_CODE_ADDR = 0xbfc02000
                0x00000ff0                _DBG_CODE_SIZE = 0xff0
                0x9fc01180                _GEN_EXCPT_ADDR = (_ebase_address + 0x180)

.config_BFC02FF0
 *(.config_BFC02FF0)

.config_BFC02FF4
                0xbfc02ff4        0x4
 *(.config_BFC02FF4)
 .config_BFC02FF4
                0xbfc02ff4        0x4 build/default/production/_ext/1445274692/main.o

.config_BFC02FF8
                0xbfc02ff8        0x4
 *(.config_BFC02FF8)
 .config_BFC02FF8
                0xbfc02ff8        0x4 build/default/production/_ext/1445274692/main.o

.config_BFC02FFC
                0xbfc02ffc        0x4
 *(.config_BFC02FFC)
 .config_BFC02FFC
                0xbfc02ffc        0x4 build/default/production/_ext/1445274692/main.o
                0xbfc02000                PROVIDE (_DBG_CODE_ADDR, 0xbfc02000)
                0x00000ff0                PROVIDE (_DBG_CODE_SIZE, 0xff0)

.reset          0xbfc00000      0x1f4
 *(.reset)
 .reset         0xbfc00000       0x10 /home/opt/microchip/xc32/v1.00/bin/../lib/gcc/pic32mx/4.5.1/../../../../pic32mx/lib/crt0.o
                0xbfc00000                _reset
 *(.reset.startup)
 .reset.startup
                0xbfc00010      0x1e4 /home/opt/microchip/xc32/v1.00/bin/../lib/gcc/pic32mx/4.5.1/../../../../pic32mx/lib/crt0.o

.bev_excpt      0xbfc00380       0x10
 *(.bev_handler)
 .bev_handler   0xbfc00380       0x10 /home/opt/microchip/xc32/v1.00/bin/../lib/gcc/pic32mx/4.5.1/../../../../pic32mx/lib/crt0.o

.dbg_excpt      0xbfc00480        0x0
                0xbfc00480                . = (. + DEFINED (_DEBUGGER)?0x8:0x0)

.dbg_code       0xbfc02000        0x0
                0xbfc02000                . = (. + DEFINED (_DEBUGGER)?_DBG_CODE_SIZE:0x0)

.app_excpt      0x9fc01180       0x10
 *(.gen_handler)
 .gen_handler   0x9fc01180       0x10 /home/opt/microchip/xc32/v1.00/bin/../lib/gcc/pic32mx/4.5.1/../../../../pic32mx/lib/crt0.o

.vector_0       0x9fc01200        0x0
 *(.vector_0)
                0x00000001                ASSERT (((_vector_spacing == 0x0) || (SIZEOF (.vector_0) <= (_vector_spacing << 0x5))), function at exception vector 0 too large)

.vector_1       0x9fc01220        0x0
 *(.vector_1)
                0x00000001                ASSERT (((_vector_spacing == 0x0) || (SIZEOF (.vector_1) <= (_vector_spacing << 0x5))), function at exception vector 1 too large)

.vector_2       0x9fc01240        0x0
 *(.vector_2)
                0x00000001                ASSERT (((_vector_spacing == 0x0) || (SIZEOF (.vector_2) <= (_vector_spacing << 0x5))), function at exception vector 2 too large)

.vector_3       0x9fc01260        0x0
 *(.vector_3)
                0x00000001                ASSERT (((_vector_spacing == 0x0) || (SIZEOF (.vector_3) <= (_vector_spacing << 0x5))), function at exception vector 3 too large)

.vector_4       0x9fc01280        0x8
 *(.vector_4)
 .vector_4      0x9fc01280        0x8 build/default/production/_ext/2118813141/Tick.o
                0x00000001                ASSERT (((_vector_spacing == 0x0) || (SIZEOF (.vector_4) <= (_vector_spacing << 0x5))), function at exception vector 4 too large)

.vector_5       0x9fc012a0        0x0
 *(.vector_5)
                0x00000001                ASSERT (((_vector_spacing == 0x0) || (SIZEOF (.vector_5) <= (_vector_spacing << 0x5))), function at exception vector 5 too large)

.vector_6       0x9fc012c0        0x0
 *(.vector_6)
                0x00000001                ASSERT (((_vector_spacing == 0x0) || (SIZEOF (.vector_6) <= (_vector_spacing << 0x5))), function at exception vector 6 too large)

.vector_7       0x9fc012e0        0x0
 *(.vector_7)
                0x00000001                ASSERT (((_vector_spacing == 0x0) || (SIZEOF (.vector_7) <= (_vector_spacing << 0x5))), function at exception vector 7 too large)

.vector_8       0x9fc01300        0x8
 *(.vector_8)
 .vector_8      0x9fc01300        0x8 build/default/production/_ext/263962707/Servo.o
                0x00000001                ASSERT (((_vector_spacing == 0x0) || (SIZEOF (.vector_8) <= (_vector_spacing << 0x5))), function at exception vector 8 too large)

.vector_9       0x9fc01320        0x0
 *(.vector_9)
                0x00000001                ASSERT (((_vector_spacing == 0x0) || (SIZEOF (.vector_9) <= (_vector_spacing << 0x5))), function at exception vector 9 too large)

.vector_10      0x9fc01340        0x0
 *(.vector_10)
                0x00000001                ASSERT (((_vector_spacing == 0x0) || (SIZEOF (.vector_10) <= (_vector_spacing << 0x5))), function at exception vector 10 too large)

.vector_11      0x9fc01360        0x0
 *(.vector_11)
                0x00000001                ASSERT (((_vector_spacing == 0x0) || (SIZEOF (.vector_11) <= (_vector_spacing << 0x5))), function at exception vector 11 too large)

.vector_12      0x9fc01380        0x8
 *(.vector_12)
 .vector_12     0x9fc01380        0x8 build/default/production/_ext/263962707/ForgeHeater.o
                0x00000001                ASSERT (((_vector_spacing == 0x0) || (SIZEOF (.vector_12) <= (_vector_spacing << 0x5))), function at exception vector 12 too large)

.vector_13      0x9fc013a0        0x0
 *(.vector_13)
                0x00000001                ASSERT (((_vector_spacing == 0x0) || (SIZEOF (.vector_13) <= (_vector_spacing << 0x5))), function at exception vector 13 too large)

.vector_14      0x9fc013c0        0x0
 *(.vector_14)
                0x00000001                ASSERT (((_vector_spacing == 0x0) || (SIZEOF (.vector_14) <= (_vector_spacing << 0x5))), function at exception vector 14 too large)

.vector_15      0x9fc013e0        0x0
 *(.vector_15)
                0x00000001                ASSERT (((_vector_spacing == 0x0) || (SIZEOF (.vector_15) <= (_vector_spacing << 0x5))), function at exception vector 15 too large)

.vector_16      0x9fc01400        0x0
 *(.vector_16)
                0x00000001                ASSERT (((_vector_spacing == 0x0) || (SIZEOF (.vector_16) <= (_vector_spacing << 0x5))), function at exception vector 16 too large)

.vector_17      0x9fc01420        0x0
 *(.vector_17)
                0x00000001                ASSERT (((_vector_spacing == 0x0) || (SIZEOF (.vector_17) <= (_vector_spacing << 0x5))), function at exception vector 17 too large)

.vector_18      0x9fc01440        0x0
 *(.vector_18)
                0x00000001                ASSERT (((_vector_spacing == 0x0) || (SIZEOF (.vector_18) <= (_vector_spacing << 0x5))), function at exception vector 18 too large)

.vector_19      0x9fc01460        0x8
 *(.vector_19)
 .vector_19     0x9fc01460        0x8 build/default/production/_ext/519170017/StepperSim.o
                0x00000001                ASSERT (((_vector_spacing == 0x0) || (SIZEOF (.vector_19) <= (_vector_spacing << 0x5))), function at exception vector 19 too large)

.vector_20      0x9fc01480        0x0
 *(.vector_20)
                0x00000001                ASSERT (((_vector_spacing == 0x0) || (SIZEOF (.vector_20) <= (_vector_spacing << 0x5))), function at exception vector 20 too large)

.vector_21      0x9fc014a0        0x0
 *(.vector_21)
                0x00000001                ASSERT (((_vector_spacing == 0x0) || (SIZEOF (.vector_21) <= (_vector_spacing << 0x5))), function at exception vector 21 too large)

.vector_22      0x9fc014c0        0x0
 *(.vector_22)
                0x00000001                ASSERT (((_vector_spacing == 0x0) || (SIZEOF (.vector_22) <= (_vector_spacing << 0x5))), function at exception vector 22 too large)

.vector_23      0x9fc014e0        0x0
 *(.vector_23)
                0x00000001                ASSERT (((_vector_spacing == 0x0) || (SIZEOF (.vector_23) <= (_vector_spacing << 0x5))), function at exception vector 23 too large)

.vector_24      0x9fc01500        0x8
 *(.vector_24)
 .vector_24     0x9fc01500        0x8 build/default/production/_ext/2118813141/Bowler_UART_HAL.o
                0x00000001                ASSERT (((_vector_spacing == 0x0) || (SIZEOF (.vector_24) <= (_vector_spacing << 0x5))), function at exception vector 24 too large)

.vector_25      0x9fc01520        0x0
 *(.vector_25)
                0x00000001                ASSERT (((_vector_spacing == 0x0) || (SIZEOF (.vector_25) <= (_vector_spacing << 0x5))), function at exception vector 25 too large)

.vector_26      0x9fc01540        0x0
 *(.vector_26)
                0x00000001                ASSERT (((_vector_spacing == 0x0) || (SIZEOF (.vector_26) <= (_vector_spacing << 0x5))), function at exception vector 26 too large)

.vector_27      0x9fc01560        0x0
 *(.vector_27)
                0x00000001                ASSERT (((_vector_spacing == 0x0) || (SIZEOF (.vector_27) <= (_vector_spacing << 0x5))), function at exception vector 27 too large)

.vector_28      0x9fc01580        0x0
 *(.vector_28)
                0x00000001                ASSERT (((_vector_spacing == 0x0) || (SIZEOF (.vector_28) <= (_vector_spacing << 0x5))), function at exception vector 28 too large)

.vector_29      0x9fc015a0        0x0
 *(.vector_29)
                0x00000001                ASSERT (((_vector_spacing == 0x0) || (SIZEOF (.vector_29) <= (_vector_spacing << 0x5))), function at exception vector 29 too large)

.vector_30      0x9fc015c0        0x0
 *(.vector_30)
                0x00000001                ASSERT (((_vector_spacing == 0x0) || (SIZEOF (.vector_30) <= (_vector_spacing << 0x5))), function at exception vector 30 too large)

.vector_31      0x9fc015e0        0x0
 *(.vector_31)
                0x00000001                ASSERT (((_vector_spacing == 0x0) || (SIZEOF (.vector_31) <= (_vector_spacing << 0x5))), function at exception vector 31 too large)

.vector_32      0x9fc01600        0x0
 *(.vector_32)
                0x00000001                ASSERT (((_vector_spacing == 0x0) || (SIZEOF (.vector_32) <= (_vector_spacing << 0x5))), function at exception vector 32 too large)

.vector_33      0x9fc01620        0x0
 *(.vector_33)
                0x00000001                ASSERT (((_vector_spacing == 0x0) || (SIZEOF (.vector_33) <= (_vector_spacing << 0x5))), function at exception vector 33 too large)

.vector_34      0x9fc01640        0x0
 *(.vector_34)
                0x00000001                ASSERT (((_vector_spacing == 0x0) || (SIZEOF (.vector_34) <= (_vector_spacing << 0x5))), function at exception vector 34 too large)

.vector_35      0x9fc01660        0x0
 *(.vector_35)
                0x00000001                ASSERT (((_vector_spacing == 0x0) || (SIZEOF (.vector_35) <= (_vector_spacing << 0x5))), function at exception vector 35 too large)

.vector_36      0x9fc01680        0x0
 *(.vector_36)
                0x00000001                ASSERT (((_vector_spacing == 0x0) || (SIZEOF (.vector_36) <= (_vector_spacing << 0x5))), function at exception vector 36 too large)

.vector_37      0x9fc016a0        0x0
 *(.vector_37)
                0x00000001                ASSERT (((_vector_spacing == 0x0) || (SIZEOF (.vector_37) <= (_vector_spacing << 0x5))), function at exception vector 37 too large)

.vector_38      0x9fc016c0        0x0
 *(.vector_38)
                0x00000001                ASSERT (((_vector_spacing == 0x0) || (SIZEOF (.vector_38) <= (_vector_spacing << 0x5))), function at exception vector 38 too large)

.vector_39      0x9fc016e0        0x0
 *(.vector_39)
                0x00000001                ASSERT (((_vector_spacing == 0x0) || (SIZEOF (.vector_39) <= (_vector_spacing << 0x5))), function at exception vector 39 too large)

.vector_40      0x9fc01700        0x0
 *(.vector_40)
                0x00000001                ASSERT (((_vector_spacing == 0x0) || (SIZEOF (.vector_40) <= (_vector_spacing << 0x5))), function at exception vector 40 too large)

.vector_41      0x9fc01720        0x0
 *(.vector_41)
                0x00000001                ASSERT (((_vector_spacing == 0x0) || (SIZEOF (.vector_41) <= (_vector_spacing << 0x5))), function at exception vector 41 too large)

.vector_42      0x9fc01740        0x0
 *(.vector_42)
                0x00000001                ASSERT (((_vector_spacing == 0x0) || (SIZEOF (.vector_42) <= (_vector_spacing << 0x5))), function at exception vector 42 too large)

.vector_43      0x9fc01760        0x0
 *(.vector_43)
                0x00000001                ASSERT (((_vector_spacing == 0x0) || (SIZEOF (.vector_43) <= (_vector_spacing << 0x5))), function at exception vector 43 too large)

.vector_44      0x9fc01780        0x0
 *(.vector_44)
                0x00000001                ASSERT (((_vector_spacing == 0x0) || (SIZEOF (.vector_44) <= (_vector_spacing << 0x5))), function at exception vector 44 too large)

.vector_45      0x9fc017a0        0x8
 *(.vector_45)
 .vector_45     0x9fc017a0        0x8 build/default/production/_ext/1487882678/usb_device.o
                0x00000001                ASSERT (((_vector_spacing == 0x0) || (SIZEOF (.vector_45) <= (_vector_spacing << 0x5))), function at exception vector 45 too large)

.vector_46      0x9fc017c0        0x0
 *(.vector_46)
                0x00000001                ASSERT (((_vector_spacing == 0x0) || (SIZEOF (.vector_46) <= (_vector_spacing << 0x5))), function at exception vector 46 too large)

.vector_47      0x9fc017e0        0x0
 *(.vector_47)
                0x00000001                ASSERT (((_vector_spacing == 0x0) || (SIZEOF (.vector_47) <= (_vector_spacing << 0x5))), function at exception vector 47 too large)

.vector_48      0x9fc01800        0x0
 *(.vector_48)
                0x00000001                ASSERT (((_vector_spacing == 0x0) || (SIZEOF (.vector_48) <= (_vector_spacing << 0x5))), function at exception vector 48 too large)

.vector_49      0x9fc01820        0x0
 *(.vector_49)
                0x00000001                ASSERT (((_vector_spacing == 0x0) || (SIZEOF (.vector_49) <= (_vector_spacing << 0x5))), function at exception vector 49 too large)

.vector_50      0x9fc01840        0x0
 *(.vector_50)
                0x00000001                ASSERT (((_vector_spacing == 0x0) || (SIZEOF (.vector_50) <= (_vector_spacing << 0x5))), function at exception vector 50 too large)

.vector_51      0x9fc01860        0x0
 *(.vector_51)
                0x00000001                ASSERT (((_vector_spacing == 0x0) || (SIZEOF (.vector_51) <= (_vector_spacing << 0x5))), function at exception vector 51 too large)

.vector_52      0x9fc01880        0x0
 *(.vector_52)
                0x00000001                ASSERT (((_vector_spacing == 0x0) || (SIZEOF (.vector_52) <= (_vector_spacing << 0x5))), function at exception vector 52 too large)

.vector_53      0x9fc018a0        0x0
 *(.vector_53)
                0x00000001                ASSERT (((_vector_spacing == 0x0) || (SIZEOF (.vector_53) <= (_vector_spacing << 0x5))), function at exception vector 53 too large)

.vector_54      0x9fc018c0        0x0
 *(.vector_54)
                0x00000001                ASSERT (((_vector_spacing == 0x0) || (SIZEOF (.vector_54) <= (_vector_spacing << 0x5))), function at exception vector 54 too large)

.vector_55      0x9fc018e0        0x0
 *(.vector_55)
                0x00000001                ASSERT (((_vector_spacing == 0x0) || (SIZEOF (.vector_55) <= (_vector_spacing << 0x5))), function at exception vector 55 too large)

.vector_56      0x9fc01900        0x0
 *(.vector_56)
                0x00000001                ASSERT (((_vector_spacing == 0x0) || (SIZEOF (.vector_56) <= (_vector_spacing << 0x5))), function at exception vector 56 too large)

.vector_57      0x9fc01920        0x0
 *(.vector_57)
                0x00000001                ASSERT (((_vector_spacing == 0x0) || (SIZEOF (.vector_57) <= (_vector_spacing << 0x5))), function at exception vector 57 too large)

.vector_58      0x9fc01940        0x0
 *(.vector_58)
                0x00000001                ASSERT (((_vector_spacing == 0x0) || (SIZEOF (.vector_58) <= (_vector_spacing << 0x5))), function at exception vector 58 too large)

.vector_59      0x9fc01960        0x0
 *(.vector_59)
                0x00000001                ASSERT (((_vector_spacing == 0x0) || (SIZEOF (.vector_59) <= (_vector_spacing << 0x5))), function at exception vector 59 too large)

.vector_60      0x9fc01980        0x0
 *(.vector_60)
                0x00000001                ASSERT (((_vector_spacing == 0x0) || (SIZEOF (.vector_60) <= (_vector_spacing << 0x5))), function at exception vector 60 too large)

.vector_61      0x9fc019a0        0x0
 *(.vector_61)
                0x00000001                ASSERT (((_vector_spacing == 0x0) || (SIZEOF (.vector_61) <= (_vector_spacing << 0x5))), function at exception vector 61 too large)

.vector_62      0x9fc019c0        0x0
 *(.vector_62)
                0x00000001                ASSERT (((_vector_spacing == 0x0) || (SIZEOF (.vector_62) <= (_vector_spacing << 0x5))), function at exception vector 62 too large)

.vector_63      0x9fc019e0        0x0
 *(.vector_63)
                0x00000001                ASSERT (((_vector_spacing == 0x0) || (SIZEOF (.vector_63) <= (_vector_spacing << 0x5))), function at exception vector 63 too large)

.startup
 *(.startup)

.text
 *(.stub .gnu.linkonce.t.*)
 *(.text.*personality*)
 *(.mips16.fn.*)
 *(.mips16.call.*)
 *(.gnu.warning)

.rodata         0x9d000000        0x0
 *(.rodata.* .gnu.linkonce.r.*)
 *(.rodata1)
                0x9d000000                . = ALIGN (0x4)

.sdata2         0x9fc00490        0x0
 *(.sdata2 .sdata2.* .gnu.linkonce.s2.*)
                0x9fc00490                . = ALIGN (0x4)

.sbss2          0x9fc00490        0x0
 *(.sbss2 .sbss2.* .gnu.linkonce.sb2.*)
                0x9fc00490                . = ALIGN (0x4)

.eh_frame_hdr
 *(.eh_frame_hdr)

.eh_frame
 *(.eh_frame)

.dbg_data       0xa0000000        0x0
                0xa0000000                . = (. + DEFINED (_DEBUGGER)?0x200:0x0)

.persist        0xa0000000        0x0
                0xa0000000                _persist_begin = .
 *(.persist .persist.*)
                0xa0000000                . = ALIGN (0x4)
                0xa0000000                _persist_end = .

.eh_frame
 *(.eh_frame)
                0xa0000000                . = .
                0xa0007ff0                _gp = (ALIGN (0x10) + 0x7ff0)

.got
 *(.got.plt)
 *(.got)

.sdata          0xa0000000       0xd8
                0xa0000000                _sdata_begin = .
 *(.sdata .sdata.* .gnu.linkonce.s.*)
 .sdata         0xa0000000        0x8 build/default/production/_ext/1487882678/usb_descriptors.o
                0xa0000000                sd000
                0xa0000004                USB_CD_Ptr
 .sdata         0xa0000008        0x4 build/default/production/_ext/1487882678/usb_fifo.o
 .sdata         0xa000000c        0x8 build/default/production/_ext/2118813141/FlashStorage.o
                0xa000000c                defMac
 .sdata         0xa0000014        0x4 build/default/production/_ext/1080174469/AbstractPID.o
                0xa0000014                zone
 .sdata         0xa0000018        0x8 build/default/production/_ext/1080174469/Bowler_Server.o
                0xa0000018                MyMAC
 .sdata         0xa0000020        0x8 build/default/production/_ext/1080174469/Namespace_bcs_core.o
 .sdata         0xa0000028       0x4c build/default/production/_ext/1080174469/Namespace_bcs_pid.o
 .sdata         0xa0000074       0x18 build/default/production/_ext/1080174469/Namespace_bcs_rpc.o
 .sdata         0xa000008c        0x1 build/default/production/_ext/263962707/Servo.o
                0xa000008c                stop
 *fill*         0xa000008d        0x3 00
 .sdata         0xa0000090       0x10 build/default/production/_ext/1494288313/CartesianController.o
                0xa0000090                scale
                0xa0000094                extrusionScale
 .sdata         0xa00000a0       0x14 build/default/production/_ext/1494288313/delta.o
                0xa00000a0                e
                0xa00000a4                f
                0xa00000a8                re
                0xa00000ac                rf
                0xa00000b0                zOffset
 .sdata         0xa00000b4        0x8 build/default/production/_ext/519170017/servoCalibration.o
 .sdata         0xa00000bc       0x1c build/default/production/_ext/1445274692/main.o
                0xa00000d8                _sdata_end = .

.lit8
 *(.lit8)

.lit4
 *(.lit4)
                0xa00000d8                . = ALIGN (0x4)
                0xa00000d8                _data_end = .
                0xa00000d8                _bss_begin = .

.sbss           0xa00000d8      0x190
                0xa00000d8                _sbss_begin = .
 *(.dynsbss)
 *(.sbss .sbss.* .gnu.linkonce.sb.*)
 .sbss          0xa00000d8       0x10 build/default/production/_ext/1487882678/usb_fifo.o
 .sbss          0xa00000e8        0x2 build/default/production/_ext/1487882678/usb_callback.o
 *fill*         0xa00000ea        0x2 00
 .sbss          0xa00000ec        0x8 build/default/production/_ext/2118813141/HAL_P32.o
 .sbss          0xa00000f4        0x8 build/default/production/_ext/2118813141/Tick.o
 .sbss          0xa00000fc        0x8 build/default/production/_ext/2118813141/Bowler_UART_HAL.o
 .sbss          0xa0000104        0x8 build/default/production/_ext/2118813141/UART.o
                0xa0000104                useUart2
                0xa0000108                useUart1
 .sbss          0xa000010c        0x4 build/default/production/_ext/2118813141/ADC.o
                0xa000010c                ADCMask
 .sbss          0xa0000110       0x14 build/default/production/_ext/1080174469/AbstractPID.o
                0xa0000110                number_of_pid_groups
 .sbss          0xa0000124        0x4 build/default/production/_ext/1080174469/Bowler_RPC_Process.o
 .sbss          0xa0000128        0xc build/default/production/_ext/1080174469/Debug.o
                0xa0000128                level
 .sbss          0xa0000134        0x4 build/default/production/_ext/1080174469/Namespace_bcs_core.o
 .sbss          0xa0000138        0x4 build/default/production/_ext/1080174469/Namespace_bcs_pid.o
 .sbss          0xa000013c        0x4 build/default/production/_ext/1080174469/Namespace_bcs_rpc.o
 .sbss          0xa0000140        0xc build/default/production/_ext/263962707/Servo.o
                0xa0000140                sortedIndex
                0xa0000144                start
                0xa0000148                servoCalibrationState
 .sbss          0xa000014c        0x4 build/default/production/_ext/263962707/ForgeHeater.o
                0xa000014c                heaterIndex
 .sbss          0xa0000150        0x3 build/default/production/_ext/263962707/AS5055.o
                0xa0000150                initialized
                0xa0000151                busy
                0xa0000152                lock
 *fill*         0xa0000153        0x1 00
 .sbss          0xa0000154        0x8 build/default/production/_ext/1494288313/CartesianController.o
                0xa0000154                full
                0xa0000158                lastPushedBufferSize
 .sbss          0xa000015c        0x4 build/default/production/_ext/519170017/StepperSim.o
                0xa000015c                current
 .sbss          0xa0000160        0x4 build/default/production/_ext/519170017/PID.o
                0xa0000160                runPidIsr
 .sbss          0xa0000164        0x4 build/default/production/_ext/2048476848/Namespace_bcs_cartesian.o
 .sbss          0xa0000168        0xc build/default/production/_ext/2048476848/Callbacks.o
 .sbss          0xa0000174        0xc build/default/production/_ext/1445274692/main.o
                0xa0000174                height
                0xa0000178                j
                0xa000017c                i
 .sbss          0xa0000180        0x4 /home/opt/microchip/xc32/v1.00/bin/../lib/gcc/pic32mx/4.5.1/../../../../pic32mx/lib/libc.a(errno.o)
                0xa0000180                errno
 *(.scommon)
 .scommon       0xa0000184       0x40 build/default/production/_ext/1487882678/usb_function_cdc.o
                0xa0000184                control_signal_bitmap
                0xa0000188                cdc_tx_len
                0xa000018c                pCDCSrc
                0xa0000190                CDCDataOutHandle
                0xa0000194                cdc_rx_len
                0xa0000198                line_coding
                0xa00001a0                BaudRateGen
                0xa00001a4                CDCDataInHandle
                0xa00001a8                cdc_notice
                0xa00001b0                cdc_trf_state
                0xa00001b4                pCDCDst
                0xa00001b8                cdc_mem_type
                0xa00001bc                dummy_encapsulated_cmd_response
 .scommon       0xa00001c4       0x41 build/default/production/_ext/1487882678/usb_device.o
                0xa00001c4                pDst
                0xa00001c8                USBDeviceState
                0xa00001cc                controlTransferState
                0xa00001d0                USBInMaxPacketSize
                0xa00001d8                inPipes
                0xa00001e0                BothEP0OutUOWNsSet
                0xa00001e4                pBDTEntryEP0OutNext
                0xa00001e8                SetupPkt
                0xa00001f0                shortPacketStatus
                0xa00001f4                pBDTEntryEP0OutCurrent
                0xa00001f8                USBActiveConfiguration
                0xa00001fc                RemoteWakeup
                0xa0000200                USTATcopy
                0xa0000204                USBAlternateInterface
 *fill*         0xa0000205        0x3 00
 .scommon       0xa0000208       0x24 build/default/production/_ext/1080174469/AbstractPID.o
                0xa0000208                resetPosition
                0xa000020c                MathCalculationVelocity
                0xa0000210                velData
                0xa0000214                MathCalculationPosition
                0xa0000218                onPidConfigure
                0xa000021c                pidGroups
                0xa0000220                setOutput
                0xa0000224                getPosition
                0xa0000228                checkPIDLimitEvents
 .scommon       0xa000022c       0x18 build/default/production/_ext/263962707/Servo.o
                0xa000022c                currentServo
                0xa0000230                lastValue
                0xa0000234                nextServo
                0xa0000238                nextValue
                0xa000023c                diff
                0xa0000240                currentValue
 .scommon       0xa0000244        0x4 build/default/production/_ext/263962707/ForgeHeater.o
                0xa0000244                heaterLowpassIndex
 .scommon       0xa0000248       0x1c build/default/production/_ext/1494288313/delta.o
                0xa0000248                cos120
                0xa000024c                sqrt3
                0xa0000250                sin30
                0xa0000254                tan30
                0xa0000258                pi
                0xa000025c                sin120
                0xa0000260                tan60
 .scommon       0xa0000264        0x4 build/default/production/_ext/519170017/servoCalibration.o
                0xa0000264                state
                0xa0000268                _sbss_end = .

.bss            0xa0000400     0x31d4
 *(.dynbss)
 *(COMMON)
 COMMON         0xa0000400       0x80 build/default/production/_ext/1487882678/usb_function_cdc.o
                0xa0000400                cdc_data_tx
                0xa0000440                cdc_data_rx
 *fill*         0xa0000480      0x180 00
 COMMON         0xa0000600       0xf7 build/default/production/_ext/1487882678/usb_device.o
                0xa0000600                BDT
                0xa0000680                CtrlTrfData
                0xa00006c0                pBDTEntryIn
                0xa00006d0                pBDTEntryOut
                0xa00006e0                USBInData
                0xa00006ec                outPipes
 *fill*         0xa00006f7        0x1 00
 COMMON         0xa00006f8       0x50 build/default/production/_ext/2118813141/FlashStorage.o
                0xa00006f8                flash
 COMMON         0xa0000748       0xc0 build/default/production/_ext/263962707/Servo.o
                0xa0000748                position
                0xa0000768                sort
                0xa0000788                velocity
 COMMON         0xa0000808       0x10 build/default/production/_ext/263962707/ForgeHeater.o
                0xa0000808                heaterLowpass
 COMMON         0xa0000818       0xb0 build/default/production/_ext/263962707/AS5055.o
                0xa0000818                overflow
                0xa0000844                raw
                0xa0000870                offset
                0xa000089c                recent
 COMMON         0xa00008c8     0x2bfe build/default/production/_ext/1494288313/CartesianController.o
                0xa00008c8                packetFifo
                0xa00008e0                intCartesian
                0xa0000910                linTmpPack
                0xa0000a1c                lastXYZE
                0xa0000a2c                buffer
                0xa00033bc                packetTemp
 *fill*         0xa00034c6        0x2 00
 COMMON         0xa00034c8      0x10a build/default/production/_ext/2048476848/Callbacks.o
                0xa00034c8                tmpData
                0xa00035d4                . = ALIGN (0x4)
 *fill*         0xa00035d2        0x2 00
                0xa00035d4                . = ALIGN (0x4)
                0xa00035d4                _end = .
                0xa00035d4                _bss_end = .
                0x00008000                _bmxdudba_address = 0x8000
                0x00008000                _bmxdupba_address = 0x8000

/DISCARD/
 *(.pdr)
 *(.reginfo)
 *(.rel.dyn)
 *(.note.GNU-stack)
 *(.note.GNU-stack)
 *(.gnu_debuglink)
 *(.gnu.lto_*)
 *(.discard)

.stab
 *(.stab)

.stabstr
 *(.stabstr)

.stab.excl
 *(.stab.excl)

.stab.exclstr
 *(.stab.exclstr)

.stab.index
 *(.stab.index)

.stab.indexstr
 *(.stab.indexstr)

.comment        0x00000000       0xea
 *(.comment)
 .comment       0x00000000       0x33 build/default/production/_ext/1487882678/usb_descriptors.o
                                 0x34 (size before relaxing)
 .comment       0x00000000       0x34 build/default/production/_ext/1487882678/usb_function_cdc.o
 .comment       0x00000000       0x34 build/default/production/_ext/1487882678/usb_fifo.o
 .comment       0x00000000       0x34 build/default/production/_ext/1487882678/usb_callback.o
 .comment       0x00000000       0x34 build/default/production/_ext/1487882678/usb_interrupt.o
 .comment       0x00000000       0x34 build/default/production/_ext/1487882678/usb_device.o
 .comment       0x00000000       0x34 build/default/production/_ext/2118813141/Delay.o
 .comment       0x00000000       0x34 build/default/production/_ext/2118813141/FlashStorage.o
 .comment       0x00000000       0x34 build/default/production/_ext/2118813141/HAL_P32.o
 .comment       0x00000000       0x34 build/default/production/_ext/2118813141/LED.o
 .comment       0x00000000       0x34 build/default/production/_ext/2118813141/Tick.o
 .comment       0x00000000       0x34 build/default/production/_ext/2118813141/Bowler_UART_HAL.o
 .comment       0x00000000       0x34 build/default/production/_ext/2118813141/UART.o
 .comment       0x00000000       0x34 build/default/production/_ext/2118813141/ADC.o
 .comment       0x00000000       0x34 build/default/production/_ext/2118813141/Bowler_USB_HAL.o
 .comment       0x00000000       0x34 build/default/production/_ext/1080174469/Bowler_Helper.o
 .comment       0x00000000       0x34 build/default/production/_ext/1080174469/AbstractPID.o
 .comment       0x00000000       0x34 build/default/production/_ext/1080174469/Bowler_Stack_Callback.o
 .comment       0x00000000       0x34 build/default/production/_ext/1080174469/FIFO.o
 .comment       0x00000000       0x34 build/default/production/_ext/1080174469/Bowler_RPC_Process.o
 .comment       0x00000000       0x34 build/default/production/_ext/1080174469/Bowler_Transport.o
 .comment       0x00000000       0x34 build/default/production/_ext/1080174469/Debug.o
 .comment       0x00000000       0x34 build/default/production/_ext/1080174469/Scheduler.o
 .comment       0x00000000       0x34 build/default/production/_ext/1080174469/Bowler_Server.o
 .comment       0x00000000       0x34 build/default/production/_ext/1080174469/Namespace_bcs_core.o
 .comment       0x00000000       0x34 build/default/production/_ext/1080174469/Namespace_bcs_pid.o
 .comment       0x00000000       0x34 build/default/production/_ext/1080174469/Namespace_bcs_rpc.o
 .comment       0x00000000       0x34 build/default/production/_ext/263962707/Servo.o
 .comment       0x00000000       0x34 build/default/production/_ext/263962707/SPIClient.o
 .comment       0x00000000       0x34 build/default/production/_ext/263962707/ForgeHeater.o
 .comment       0x00000000       0x34 build/default/production/_ext/263962707/AS5055.o
 .comment       0x00000000       0x34 build/default/production/_ext/1494288313/KosselKinematics.o
 .comment       0x00000000       0x34 build/default/production/_ext/1494288313/CartesianController.o
 .comment       0x00000000       0x34 build/default/production/_ext/1494288313/DeltaKinematics.o
 .comment       0x00000000       0x34 build/default/production/_ext/1494288313/delta.o
 .comment       0x00000000       0x34 build/default/production/_ext/519170017/MotionTest.o
 .comment       0x00000000       0x34 build/default/production/_ext/519170017/Calibration.o
 .comment       0x00000000       0x34 build/default/production/_ext/519170017/StepperSim.o
 .comment       0x00000000       0x34 build/default/production/_ext/519170017/servoCalibration.o
 .comment       0x00000000       0x34 build/default/production/_ext/519170017/PID.o
 .comment       0x00000000       0x34 build/default/production/_ext/2048476848/UpstreamPackets.o
 .comment       0x00000000       0x34 build/default/production/_ext/2048476848/Namespace_bcs_cartesian.o
 .comment       0x00000000       0x34 build/default/production/_ext/2048476848/Callbacks.o
 .comment       0x00000000       0x34 build/default/production/_ext/1445274692/main.o
 .comment       0x00000000       0x34 /home/opt/microchip/xc32/v1.00/bin/../lib/gcc/pic32mx/4.5.1/libgcc.a(floatunsisf.o)
 .comment       0x00000033       0x18 /home/opt/microchip/xc32/v1.00/bin/../lib/gcc/pic32mx/4.5.1/../../../../pic32mx/lib/libc.a(memset.o)
                                 0x19 (size before relaxing)
 .comment       0x00000000       0x34 /home/opt/microchip/xc32/v1.00/bin/../lib/gcc/pic32mx/4.5.1/../../../../pic32mx/lib/libc.a(default-bootstrap-exception-handler.o)
 .comment       0x00000000       0x34 /home/opt/microchip/xc32/v1.00/bin/../lib/gcc/pic32mx/4.5.1/../../../../pic32mx/lib/libc.a(default-on-reset.o)
 .comment       0x00000000       0x34 /home/opt/microchip/xc32/v1.00/bin/../lib/gcc/pic32mx/4.5.1/../../../../pic32mx/lib/libc.a(default-on-bootstrap.o)
 .comment       0x00000000       0x34 /home/opt/microchip/xc32/v1.00/bin/../lib/gcc/pic32mx/4.5.1/../../../../pic32mx/lib/libm.a(w_atan2f.o)
 .comment       0x00000000       0x34 /home/opt/microchip/xc32/v1.00/bin/../lib/gcc/pic32mx/4.5.1/../../../../pic32mx/lib/libm.a(w_sqrtf.o)
 .comment       0x00000000       0x34 /home/opt/microchip/xc32/v1.00/bin/../lib/gcc/pic32mx/4.5.1/../../../../pic32mx/lib/libm.a(s_lib_ver.o)
 .comment       0x00000000       0x34 /home/opt/microchip/xc32/v1.00/bin/../lib/gcc/pic32mx/4.5.1/../../../../pic32mx/lib/libm.a(cabs.o)
 .comment       0x00000000       0x34 /home/opt/microchip/xc32/v1.00/bin/../lib/gcc/pic32mx/4.5.1/../../../../pic32mx/lib/libm.a(support.o)
 .comment       0x00000000       0x34 /home/opt/microchip/xc32/v1.00/bin/../lib/gcc/pic32mx/4.5.1/../../../../pic32mx/lib/libm.a(w_ldexp.o)
 .comment       0x00000000       0x34 /home/opt/microchip/xc32/v1.00/bin/../lib/gcc/pic32mx/4.5.1/../../../../pic32mx/lib/libm.a(w_sqrt.o)
 .comment       0x00000000       0x34 /home/opt/microchip/xc32/v1.00/bin/../lib/gcc/pic32mx/4.5.1/../../../../pic32mx/lib/libc.a(errno.o)
 .comment       0x00000000       0x34 /home/opt/microchip/xc32/v1.00/bin/../lib/gcc/pic32mx/4.5.1/../../../../pic32mx/lib/libc.a(isinf.o)
 .comment       0x0000004b       0x4e /home/opt/microchip/xc32/v1.00/bin/../lib/gcc/pic32mx/4.5.1/../../../../pic32mx/lib/libe.a(_unorddf2.o)
                                 0x82 (size before relaxing)
 .comment       0x00000099       0x51 /home/opt/microchip/xc32/v1.00/bin/../lib/gcc/pic32mx/4.5.1/../../../../pic32mx/lib/libmchp_peripheral_32MX440F128H.a(pcache.o)
                                 0x52 (size before relaxing)
 .comment       0x00000000       0x52 /home/opt/microchip/xc32/v1.00/bin/../lib/gcc/pic32mx/4.5.1/../../../../pic32mx/lib/libmchp_peripheral_32MX440F128H.a(int_enable_interrupts_lib.o)
 .comment       0x00000000       0x52 /home/opt/microchip/xc32/v1.00/bin/../lib/gcc/pic32mx/4.5.1/../../../../pic32mx/lib/libmchp_peripheral_32MX440F128H.a(int_disable_interrupts_lib.o)
 .comment       0x00000000       0x52 /home/opt/microchip/xc32/v1.00/bin/../lib/gcc/pic32mx/4.5.1/../../../../pic32mx/lib/libmchp_peripheral_32MX440F128H.a(int_restore_interrupts_lib.o)
 .comment       0x00000000       0x52 /home/opt/microchip/xc32/v1.00/bin/../lib/gcc/pic32mx/4.5.1/../../../../pic32mx/lib/libmchp_peripheral_32MX440F128H.a(int_enable_mv_int_lib.o)
 .comment       0x00000000       0x52 /home/opt/microchip/xc32/v1.00/bin/../lib/gcc/pic32mx/4.5.1/../../../../pic32mx/lib/libmchp_peripheral_32MX440F128H.a(int_tbl_lib.o)
 .comment       0x00000000       0x52 /home/opt/microchip/xc32/v1.00/bin/../lib/gcc/pic32mx/4.5.1/../../../../pic32mx/lib/libmchp_peripheral_32MX440F128H.a(spi_chn_getc_lib.o)
 .comment       0x00000000       0x52 /home/opt/microchip/xc32/v1.00/bin/../lib/gcc/pic32mx/4.5.1/../../../../pic32mx/lib/libmchp_peripheral_32MX440F128H.a(spi_chn_putc_lib.o)
 .comment       0x00000000       0x52 /home/opt/microchip/xc32/v1.00/bin/../lib/gcc/pic32mx/4.5.1/../../../../pic32mx/lib/libmchp_peripheral_32MX440F128H.a(spi_map_tbl_libp.o)
 .comment       0x00000000       0x52 /home/opt/microchip/xc32/v1.00/bin/../lib/gcc/pic32mx/4.5.1/../../../../pic32mx/lib/libmchp_peripheral_32MX440F128H.a(spi_open_spi2_lib_legacy.o)
 .comment       0x00000000       0x52 /home/opt/microchip/xc32/v1.00/bin/../lib/gcc/pic32mx/4.5.1/../../../../pic32mx/lib/libmchp_peripheral_32MX440F128H.a(spi_brg_tbl_lib_legacy.o)
 .comment       0x00000000       0x52 /home/opt/microchip/xc32/v1.00/bin/../lib/gcc/pic32mx/4.5.1/../../../../pic32mx/lib/libmchp_peripheral_32MX440F128H.a(nvm_erase_page_lib.o)
 .comment       0x00000000       0x52 /home/opt/microchip/xc32/v1.00/bin/../lib/gcc/pic32mx/4.5.1/../../../../pic32mx/lib/libmchp_peripheral_32MX440F128H.a(nvm_operation_lib.o)
 .comment       0x00000000       0x52 /home/opt/microchip/xc32/v1.00/bin/../lib/gcc/pic32mx/4.5.1/../../../../pic32mx/lib/libmchp_peripheral_32MX440F128H.a(nvm_write_word_lib.o)
 .comment       0x00000000       0x52 /home/opt/microchip/xc32/v1.00/bin/../lib/gcc/pic32mx/4.5.1/../../../../pic32mx/lib/libmchp_peripheral_32MX440F128H.a(port_set_pins_digital_out_lib.o)
 .comment       0x00000000       0x52 /home/opt/microchip/xc32/v1.00/bin/../lib/gcc/pic32mx/4.5.1/../../../../pic32mx/lib/libmchp_peripheral_32MX440F128H.a(port_clear_bits_lib.o)
 .comment       0x00000000       0x52 /home/opt/microchip/xc32/v1.00/bin/../lib/gcc/pic32mx/4.5.1/../../../../pic32mx/lib/libmchp_peripheral_32MX440F128H.a(port_set_bits_lib.o)
 .comment       0x00000000       0x52 /home/opt/microchip/xc32/v1.00/bin/../lib/gcc/pic32mx/4.5.1/../../../../pic32mx/lib/libmchp_peripheral_32MX440F128H.a(_ports_tbl_libp.o)
 .comment       0x00000000       0x52 /home/opt/microchip/xc32/v1.00/bin/../lib/gcc/pic32mx/4.5.1/../../../../pic32mx/lib/libmchp_peripheral_32MX440F128H.a(uart_lib.o)

.debug
 *(.debug)

.line
 *(.line)

.debug_srcinfo
 *(.debug_srcinfo)

.debug_sfnames
 *(.debug_sfnames)

.debug_aranges  0x00000000      0x988
 *(.debug_aranges)
 .debug_aranges
                0x00000000       0x20 build/default/production/_ext/1487882678/usb_descriptors.o
 .debug_aranges
                0x00000020       0x20 build/default/production/_ext/1487882678/usb_function_cdc.o
 .debug_aranges
                0x00000040       0x20 build/default/production/_ext/1487882678/usb_fifo.o
 .debug_aranges
                0x00000060       0x20 build/default/production/_ext/1487882678/usb_callback.o
 .debug_aranges
                0x00000080       0x20 build/default/production/_ext/1487882678/usb_device.o
 .debug_aranges
                0x000000a0       0x20 build/default/production/_ext/2118813141/Delay.o
 .debug_aranges
                0x000000c0       0x20 build/default/production/_ext/2118813141/FlashStorage.o
 .debug_aranges
                0x000000e0       0x20 build/default/production/_ext/2118813141/HAL_P32.o
 .debug_aranges
                0x00000100       0x20 build/default/production/_ext/2118813141/LED.o
 .debug_aranges
                0x00000120       0x20 build/default/production/_ext/2118813141/Tick.o
 .debug_aranges
                0x00000140       0x20 build/default/production/_ext/2118813141/Bowler_UART_HAL.o
 .debug_aranges
                0x00000160       0x20 build/default/production/_ext/2118813141/UART.o
 .debug_aranges
                0x00000180       0x20 build/default/production/_ext/2118813141/ADC.o
 .debug_aranges
                0x000001a0       0x20 build/default/production/_ext/2118813141/Bowler_USB_HAL.o
 .debug_aranges
                0x000001c0       0x20 build/default/production/_ext/1080174469/Bowler_Helper.o
 .debug_aranges
                0x000001e0       0x20 build/default/production/_ext/1080174469/AbstractPID.o
 .debug_aranges
                0x00000200       0x20 build/default/production/_ext/1080174469/FIFO.o
 .debug_aranges
                0x00000220       0x20 build/default/production/_ext/1080174469/Bowler_RPC_Process.o
 .debug_aranges
                0x00000240       0x20 build/default/production/_ext/1080174469/Bowler_Transport.o
 .debug_aranges
                0x00000260       0x20 build/default/production/_ext/1080174469/Debug.o
 .debug_aranges
                0x00000280       0x20 build/default/production/_ext/1080174469/Scheduler.o
 .debug_aranges
                0x000002a0       0x20 build/default/production/_ext/1080174469/Bowler_Server.o
 .debug_aranges
                0x000002c0       0x20 build/default/production/_ext/1080174469/Namespace_bcs_core.o
 .debug_aranges
                0x000002e0       0x20 build/default/production/_ext/1080174469/Namespace_bcs_pid.o
 .debug_aranges
                0x00000300       0x20 build/default/production/_ext/1080174469/Namespace_bcs_rpc.o
 .debug_aranges
                0x00000320       0x20 build/default/production/_ext/263962707/Servo.o
 .debug_aranges
                0x00000340       0x20 build/default/production/_ext/263962707/SPIClient.o
 .debug_aranges
                0x00000360       0x20 build/default/production/_ext/263962707/ForgeHeater.o
 .debug_aranges
                0x00000380       0x20 build/default/production/_ext/263962707/AS5055.o
 .debug_aranges
                0x000003a0       0x20 build/default/production/_ext/1494288313/KosselKinematics.o
 .debug_aranges
                0x000003c0       0x20 build/default/production/_ext/1494288313/CartesianController.o
 .debug_aranges
                0x000003e0       0x20 build/default/production/_ext/1494288313/delta.o
 .debug_aranges
                0x00000400       0x20 build/default/production/_ext/519170017/StepperSim.o
 .debug_aranges
                0x00000420       0x20 build/default/production/_ext/519170017/servoCalibration.o
 .debug_aranges
                0x00000440       0x20 build/default/production/_ext/519170017/PID.o
 .debug_aranges
                0x00000460       0x20 build/default/production/_ext/2048476848/UpstreamPackets.o
 .debug_aranges
                0x00000480       0x20 build/default/production/_ext/2048476848/Namespace_bcs_cartesian.o
 .debug_aranges
                0x000004a0       0x20 build/default/production/_ext/2048476848/Callbacks.o
 .debug_aranges
                0x000004c0       0x20 build/default/production/_ext/1445274692/main.o
 .debug_aranges
                0x000004e0       0x20 /home/opt/microchip/xc32/v1.00/bin/../lib/gcc/pic32mx/4.5.1/libgcc.a(floatunsisf.o)
 .debug_aranges
                0x00000500       0x20 /home/opt/microchip/xc32/v1.00/bin/../lib/gcc/pic32mx/4.5.1/../../../../pic32mx/lib/libc.a(default-bootstrap-exception-handler.o)
 .debug_aranges
                0x00000520       0x20 /home/opt/microchip/xc32/v1.00/bin/../lib/gcc/pic32mx/4.5.1/../../../../pic32mx/lib/libc.a(default-on-reset.o)
 .debug_aranges
                0x00000540       0x20 /home/opt/microchip/xc32/v1.00/bin/../lib/gcc/pic32mx/4.5.1/../../../../pic32mx/lib/libc.a(default-on-bootstrap.o)
 .debug_aranges
                0x00000560       0x20 /home/opt/microchip/xc32/v1.00/bin/../lib/gcc/pic32mx/4.5.1/../../../../pic32mx/lib/libm.a(w_atan2f.o)
 .debug_aranges
                0x00000580       0x20 /home/opt/microchip/xc32/v1.00/bin/../lib/gcc/pic32mx/4.5.1/../../../../pic32mx/lib/libm.a(w_sqrtf.o)
 .debug_aranges
                0x000005a0       0x30 /home/opt/microchip/xc32/v1.00/bin/../lib/gcc/pic32mx/4.5.1/../../../../pic32mx/lib/libm.a(cabs.o)
 .debug_aranges
                0x000005d0       0x78 /home/opt/microchip/xc32/v1.00/bin/../lib/gcc/pic32mx/4.5.1/../../../../pic32mx/lib/libm.a(support.o)
 .debug_aranges
                0x00000648       0x20 /home/opt/microchip/xc32/v1.00/bin/../lib/gcc/pic32mx/4.5.1/../../../../pic32mx/lib/libm.a(w_ldexp.o)
 .debug_aranges
                0x00000668       0x20 /home/opt/microchip/xc32/v1.00/bin/../lib/gcc/pic32mx/4.5.1/../../../../pic32mx/lib/libm.a(w_sqrt.o)
 .debug_aranges
                0x00000688       0x48 /home/opt/microchip/xc32/v1.00/bin/../lib/gcc/pic32mx/4.5.1/../../../../pic32mx/lib/libc.a(isinf.o)
 .debug_aranges
                0x000006d0       0x20 /home/opt/microchip/xc32/v1.00/bin/../lib/gcc/pic32mx/4.5.1/../../../../pic32mx/lib/libe.a(_unorddf2.o)
 .debug_aranges
                0x000006f0       0x28 /home/opt/microchip/xc32/v1.00/bin/../lib/gcc/pic32mx/4.5.1/../../../../pic32mx/lib/libmchp_peripheral_32MX440F128H.a(pcache.o)
 .debug_aranges
                0x00000718       0x20 /home/opt/microchip/xc32/v1.00/bin/../lib/gcc/pic32mx/4.5.1/../../../../pic32mx/lib/libmchp_peripheral_32MX440F128H.a(int_enable_interrupts_lib.o)
 .debug_aranges
                0x00000738       0x20 /home/opt/microchip/xc32/v1.00/bin/../lib/gcc/pic32mx/4.5.1/../../../../pic32mx/lib/libmchp_peripheral_32MX440F128H.a(int_disable_interrupts_lib.o)
 .debug_aranges
                0x00000758       0x20 /home/opt/microchip/xc32/v1.00/bin/../lib/gcc/pic32mx/4.5.1/../../../../pic32mx/lib/libmchp_peripheral_32MX440F128H.a(int_restore_interrupts_lib.o)
 .debug_aranges
                0x00000778       0x20 /home/opt/microchip/xc32/v1.00/bin/../lib/gcc/pic32mx/4.5.1/../../../../pic32mx/lib/libmchp_peripheral_32MX440F128H.a(int_enable_mv_int_lib.o)
 .debug_aranges
                0x00000798       0x60 /home/opt/microchip/xc32/v1.00/bin/../lib/gcc/pic32mx/4.5.1/../../../../pic32mx/lib/libmchp_peripheral_32MX440F128H.a(int_tbl_lib.o)
 .debug_aranges
                0x000007f8       0x28 /home/opt/microchip/xc32/v1.00/bin/../lib/gcc/pic32mx/4.5.1/../../../../pic32mx/lib/libmchp_peripheral_32MX440F128H.a(spi_chn_getc_lib.o)
 .debug_aranges
                0x00000820       0x30 /home/opt/microchip/xc32/v1.00/bin/../lib/gcc/pic32mx/4.5.1/../../../../pic32mx/lib/libmchp_peripheral_32MX440F128H.a(spi_chn_putc_lib.o)
 .debug_aranges
                0x00000850       0x20 /home/opt/microchip/xc32/v1.00/bin/../lib/gcc/pic32mx/4.5.1/../../../../pic32mx/lib/libmchp_peripheral_32MX440F128H.a(spi_open_spi2_lib_legacy.o)
 .debug_aranges
                0x00000870       0x20 /home/opt/microchip/xc32/v1.00/bin/../lib/gcc/pic32mx/4.5.1/../../../../pic32mx/lib/libmchp_peripheral_32MX440F128H.a(nvm_erase_page_lib.o)
 .debug_aranges
                0x00000890       0x20 /home/opt/microchip/xc32/v1.00/bin/../lib/gcc/pic32mx/4.5.1/../../../../pic32mx/lib/libmchp_peripheral_32MX440F128H.a(nvm_operation_lib.o)
 .debug_aranges
                0x000008b0       0x20 /home/opt/microchip/xc32/v1.00/bin/../lib/gcc/pic32mx/4.5.1/../../../../pic32mx/lib/libmchp_peripheral_32MX440F128H.a(nvm_write_word_lib.o)
 .debug_aranges
                0x000008d0       0x20 /home/opt/microchip/xc32/v1.00/bin/../lib/gcc/pic32mx/4.5.1/../../../../pic32mx/lib/libmchp_peripheral_32MX440F128H.a(port_set_pins_digital_out_lib.o)
 .debug_aranges
                0x000008f0       0x20 /home/opt/microchip/xc32/v1.00/bin/../lib/gcc/pic32mx/4.5.1/../../../../pic32mx/lib/libmchp_peripheral_32MX440F128H.a(port_clear_bits_lib.o)
 .debug_aranges
                0x00000910       0x20 /home/opt/microchip/xc32/v1.00/bin/../lib/gcc/pic32mx/4.5.1/../../../../pic32mx/lib/libmchp_peripheral_32MX440F128H.a(port_set_bits_lib.o)
 .debug_aranges
                0x00000930       0x58 /home/opt/microchip/xc32/v1.00/bin/../lib/gcc/pic32mx/4.5.1/../../../../pic32mx/lib/libmchp_peripheral_32MX440F128H.a(uart_lib.o)

.debug_pubnames
                0x00000000     0x2863
 *(.debug_pubnames)
 .debug_pubnames
                0x00000000       0xc2 build/default/production/_ext/1487882678/usb_descriptors.o
 .debug_pubnames
                0x000000c2      0x1b1 build/default/production/_ext/1487882678/usb_function_cdc.o
 .debug_pubnames
                0x00000273       0xe7 build/default/production/_ext/1487882678/usb_fifo.o
 .debug_pubnames
                0x0000035a       0xfc build/default/production/_ext/1487882678/usb_callback.o
 .debug_pubnames
                0x00000456      0x3d5 build/default/production/_ext/1487882678/usb_device.o
 .debug_pubnames
                0x0000082b       0x5d build/default/production/_ext/2118813141/Delay.o
 .debug_pubnames
                0x00000888       0xcd build/default/production/_ext/2118813141/FlashStorage.o
 .debug_pubnames
                0x00000955       0xd7 build/default/production/_ext/2118813141/HAL_P32.o
 .debug_pubnames
                0x00000a2c       0x50 build/default/production/_ext/2118813141/LED.o
 .debug_pubnames
                0x00000a7c       0x8d build/default/production/_ext/2118813141/Tick.o
 .debug_pubnames
                0x00000b09       0xe8 build/default/production/_ext/2118813141/Bowler_UART_HAL.o
 .debug_pubnames
                0x00000bf1       0x4e build/default/production/_ext/2118813141/UART.o
 .debug_pubnames
                0x00000c3f       0x52 build/default/production/_ext/2118813141/ADC.o
 .debug_pubnames
                0x00000c91       0x4c build/default/production/_ext/2118813141/Bowler_USB_HAL.o
 .debug_pubnames
                0x00000cdd       0xf6 build/default/production/_ext/1080174469/Bowler_Helper.o
 .debug_pubnames
                0x00000dd3      0x37e build/default/production/_ext/1080174469/AbstractPID.o
 .debug_pubnames
                0x00001151      0x154 build/default/production/_ext/1080174469/FIFO.o
 .debug_pubnames
                0x000012a5       0x40 build/default/production/_ext/1080174469/Bowler_RPC_Process.o
 .debug_pubnames
                0x000012e5       0x9f build/default/production/_ext/1080174469/Bowler_Transport.o
 .debug_pubnames
                0x00001384      0x163 build/default/production/_ext/1080174469/Debug.o
 .debug_pubnames
                0x000014e7       0x1f build/default/production/_ext/1080174469/Scheduler.o
 .debug_pubnames
                0x00001506       0x71 build/default/production/_ext/1080174469/Bowler_Server.o
 .debug_pubnames
                0x00001577       0xf3 build/default/production/_ext/1080174469/Namespace_bcs_core.o
 .debug_pubnames
                0x0000166a       0x48 build/default/production/_ext/1080174469/Namespace_bcs_pid.o
 .debug_pubnames
                0x000016b2       0x3f build/default/production/_ext/1080174469/Namespace_bcs_rpc.o
 .debug_pubnames
                0x000016f1      0x1cc build/default/production/_ext/263962707/Servo.o
 .debug_pubnames
                0x000018bd       0x2b build/default/production/_ext/263962707/SPIClient.o
 .debug_pubnames
                0x000018e8       0xd9 build/default/production/_ext/263962707/ForgeHeater.o
 .debug_pubnames
                0x000019c1      0x170 build/default/production/_ext/263962707/AS5055.o
 .debug_pubnames
                0x00001b31       0x1d build/default/production/_ext/1494288313/KosselKinematics.o
 .debug_pubnames
                0x00001b4e      0x250 build/default/production/_ext/1494288313/CartesianController.o
 .debug_pubnames
                0x00001d9e       0xe9 build/default/production/_ext/1494288313/delta.o
 .debug_pubnames
                0x00001e87       0x58 build/default/production/_ext/519170017/StepperSim.o
 .debug_pubnames
                0x00001edf       0xd1 build/default/production/_ext/519170017/servoCalibration.o
 .debug_pubnames
                0x00001fb0       0xf9 build/default/production/_ext/519170017/PID.o
 .debug_pubnames
                0x000020a9       0x3c build/default/production/_ext/2048476848/UpstreamPackets.o
 .debug_pubnames
                0x000020e5       0x4f build/default/production/_ext/2048476848/Namespace_bcs_cartesian.o
 .debug_pubnames
                0x00002134       0x54 build/default/production/_ext/2048476848/Callbacks.o
 .debug_pubnames
                0x00002188       0xb8 build/default/production/_ext/1445274692/main.o
 .debug_pubnames
                0x00002240       0x24 /home/opt/microchip/xc32/v1.00/bin/../lib/gcc/pic32mx/4.5.1/libgcc.a(floatunsisf.o)
 .debug_pubnames
                0x00002264       0x33 /home/opt/microchip/xc32/v1.00/bin/../lib/gcc/pic32mx/4.5.1/../../../../pic32mx/lib/libc.a(default-bootstrap-exception-handler.o)
 .debug_pubnames
                0x00002297       0x20 /home/opt/microchip/xc32/v1.00/bin/../lib/gcc/pic32mx/4.5.1/../../../../pic32mx/lib/libc.a(default-on-reset.o)
 .debug_pubnames
                0x000022b7       0x24 /home/opt/microchip/xc32/v1.00/bin/../lib/gcc/pic32mx/4.5.1/../../../../pic32mx/lib/libc.a(default-on-bootstrap.o)
 .debug_pubnames
                0x000022db       0x1d /home/opt/microchip/xc32/v1.00/bin/../lib/gcc/pic32mx/4.5.1/../../../../pic32mx/lib/libm.a(w_atan2f.o)
 .debug_pubnames
                0x000022f8       0x1c /home/opt/microchip/xc32/v1.00/bin/../lib/gcc/pic32mx/4.5.1/../../../../pic32mx/lib/libm.a(w_sqrtf.o)
 .debug_pubnames
                0x00002314       0x32 /home/opt/microchip/xc32/v1.00/bin/../lib/gcc/pic32mx/4.5.1/../../../../pic32mx/lib/libm.a(cabs.o)
 .debug_pubnames
                0x00002346       0x98 /home/opt/microchip/xc32/v1.00/bin/../lib/gcc/pic32mx/4.5.1/../../../../pic32mx/lib/libm.a(support.o)
 .debug_pubnames
                0x000023de       0x1c /home/opt/microchip/xc32/v1.00/bin/../lib/gcc/pic32mx/4.5.1/../../../../pic32mx/lib/libm.a(w_ldexp.o)
 .debug_pubnames
                0x000023fa       0x1b /home/opt/microchip/xc32/v1.00/bin/../lib/gcc/pic32mx/4.5.1/../../../../pic32mx/lib/libm.a(w_sqrt.o)
 .debug_pubnames
                0x00002415       0x52 /home/opt/microchip/xc32/v1.00/bin/../lib/gcc/pic32mx/4.5.1/../../../../pic32mx/lib/libc.a(isinf.o)
 .debug_pubnames
                0x00002467       0x21 /home/opt/microchip/xc32/v1.00/bin/../lib/gcc/pic32mx/4.5.1/../../../../pic32mx/lib/libe.a(_unorddf2.o)
 .debug_pubnames
                0x00002488       0x3b /home/opt/microchip/xc32/v1.00/bin/../lib/gcc/pic32mx/4.5.1/../../../../pic32mx/lib/libmchp_peripheral_32MX440F128H.a(pcache.o)
 .debug_pubnames
                0x000024c3       0x2a /home/opt/microchip/xc32/v1.00/bin/../lib/gcc/pic32mx/4.5.1/../../../../pic32mx/lib/libmchp_peripheral_32MX440F128H.a(int_enable_interrupts_lib.o)
 .debug_pubnames
                0x000024ed       0x2b /home/opt/microchip/xc32/v1.00/bin/../lib/gcc/pic32mx/4.5.1/../../../../pic32mx/lib/libmchp_peripheral_32MX440F128H.a(int_disable_interrupts_lib.o)
 .debug_pubnames
                0x00002518       0x2b /home/opt/microchip/xc32/v1.00/bin/../lib/gcc/pic32mx/4.5.1/../../../../pic32mx/lib/libmchp_peripheral_32MX440F128H.a(int_restore_interrupts_lib.o)
 .debug_pubnames
                0x00002543       0x36 /home/opt/microchip/xc32/v1.00/bin/../lib/gcc/pic32mx/4.5.1/../../../../pic32mx/lib/libmchp_peripheral_32MX440F128H.a(int_enable_mv_int_lib.o)
 .debug_pubnames
                0x00002579       0xca /home/opt/microchip/xc32/v1.00/bin/../lib/gcc/pic32mx/4.5.1/../../../../pic32mx/lib/libmchp_peripheral_32MX440F128H.a(int_tbl_lib.o)
 .debug_pubnames
                0x00002643       0x31 /home/opt/microchip/xc32/v1.00/bin/../lib/gcc/pic32mx/4.5.1/../../../../pic32mx/lib/libmchp_peripheral_32MX440F128H.a(spi_chn_getc_lib.o)
 .debug_pubnames
                0x00002674       0x43 /home/opt/microchip/xc32/v1.00/bin/../lib/gcc/pic32mx/4.5.1/../../../../pic32mx/lib/libmchp_peripheral_32MX440F128H.a(spi_chn_putc_lib.o)
 .debug_pubnames
                0x000026b7       0x1f /home/opt/microchip/xc32/v1.00/bin/../lib/gcc/pic32mx/4.5.1/../../../../pic32mx/lib/libmchp_peripheral_32MX440F128H.a(spi_open_spi2_lib_legacy.o)
 .debug_pubnames
                0x000026d6       0x23 /home/opt/microchip/xc32/v1.00/bin/../lib/gcc/pic32mx/4.5.1/../../../../pic32mx/lib/libmchp_peripheral_32MX440F128H.a(nvm_erase_page_lib.o)
 .debug_pubnames
                0x000026f9       0x24 /home/opt/microchip/xc32/v1.00/bin/../lib/gcc/pic32mx/4.5.1/../../../../pic32mx/lib/libmchp_peripheral_32MX440F128H.a(nvm_operation_lib.o)
 .debug_pubnames
                0x0000271d       0x23 /home/opt/microchip/xc32/v1.00/bin/../lib/gcc/pic32mx/4.5.1/../../../../pic32mx/lib/libmchp_peripheral_32MX440F128H.a(nvm_write_word_lib.o)
 .debug_pubnames
                0x00002740       0x2c /home/opt/microchip/xc32/v1.00/bin/../lib/gcc/pic32mx/4.5.1/../../../../pic32mx/lib/libmchp_peripheral_32MX440F128H.a(port_set_pins_digital_out_lib.o)
 .debug_pubnames
                0x0000276c       0x24 /home/opt/microchip/xc32/v1.00/bin/../lib/gcc/pic32mx/4.5.1/../../../../pic32mx/lib/libmchp_peripheral_32MX440F128H.a(port_clear_bits_lib.o)
 .debug_pubnames
                0x00002790       0x22 /home/opt/microchip/xc32/v1.00/bin/../lib/gcc/pic32mx/4.5.1/../../../../pic32mx/lib/libmchp_peripheral_32MX440F128H.a(port_set_bits_lib.o)
 .debug_pubnames
                0x000027b2       0xb1 /home/opt/microchip/xc32/v1.00/bin/../lib/gcc/pic32mx/4.5.1/../../../../pic32mx/lib/libmchp_peripheral_32MX440F128H.a(uart_lib.o)

.debug_info     0x00000000    0x42f19
 *(.debug_info .gnu.linkonce.wi.*)
 .debug_info    0x00000000     0x169f build/default/production/_ext/1487882678/usb_descriptors.o
 .debug_info    0x0000169f     0x2907 build/default/production/_ext/1487882678/usb_function_cdc.o
 .debug_info    0x00003fa6     0x1af3 build/default/production/_ext/1487882678/usb_fifo.o
 .debug_info    0x00005a99     0x1c63 build/default/production/_ext/1487882678/usb_callback.o
 .debug_info    0x000076fc      0xf77 build/default/production/_ext/1487882678/usb_interrupt.o
 .debug_info    0x00008673     0x3643 build/default/production/_ext/1487882678/usb_device.o
 .debug_info    0x0000bcb6     0x108a build/default/production/_ext/2118813141/Delay.o
 .debug_info    0x0000cd40     0x160a build/default/production/_ext/2118813141/FlashStorage.o
 .debug_info    0x0000e34a     0x17a2 build/default/production/_ext/2118813141/HAL_P32.o
 .debug_info    0x0000faec     0x117f build/default/production/_ext/2118813141/LED.o
 .debug_info    0x00010c6b     0x1472 build/default/production/_ext/2118813141/Tick.o
 .debug_info    0x000120dd     0x255c build/default/production/_ext/2118813141/Bowler_UART_HAL.o
 .debug_info    0x00014639     0x16cd build/default/production/_ext/2118813141/UART.o
 .debug_info    0x00015d06     0x1b8a build/default/production/_ext/2118813141/ADC.o
 .debug_info    0x00017890     0x106a build/default/production/_ext/2118813141/Bowler_USB_HAL.o
 .debug_info    0x000188fa     0x16d6 build/default/production/_ext/1080174469/Bowler_Helper.o
 .debug_info    0x00019fd0     0x1756 build/default/production/_ext/1080174469/AbstractPID.o
 .debug_info    0x0001b726      0xf78 build/default/production/_ext/1080174469/Bowler_Stack_Callback.o
 .debug_info    0x0001c69e     0x17e7 build/default/production/_ext/1080174469/FIFO.o
 .debug_info    0x0001de85     0x1721 build/default/production/_ext/1080174469/Bowler_RPC_Process.o
 .debug_info    0x0001f5a6     0x151c build/default/production/_ext/1080174469/Bowler_Transport.o
 .debug_info    0x00020ac2     0x1c47 build/default/production/_ext/1080174469/Debug.o
 .debug_info    0x00022709     0x1013 build/default/production/_ext/1080174469/Scheduler.o
 .debug_info    0x0002371c     0x1809 build/default/production/_ext/1080174469/Bowler_Server.o
 .debug_info    0x00024f25     0x19d4 build/default/production/_ext/1080174469/Namespace_bcs_core.o
 .debug_info    0x000268f9     0x17b1 build/default/production/_ext/1080174469/Namespace_bcs_pid.o
 .debug_info    0x000280aa     0x1810 build/default/production/_ext/1080174469/Namespace_bcs_rpc.o
 .debug_info    0x000298ba     0x1de6 build/default/production/_ext/263962707/Servo.o
 .debug_info    0x0002b6a0      0xfd1 build/default/production/_ext/263962707/SPIClient.o
 .debug_info    0x0002c671     0x196f build/default/production/_ext/263962707/ForgeHeater.o
 .debug_info    0x0002dfe0     0x2421 build/default/production/_ext/263962707/AS5055.o
 .debug_info    0x00030401      0x466 build/default/production/_ext/1494288313/KosselKinematics.o
 .debug_info    0x00030867     0x1e78 build/default/production/_ext/1494288313/CartesianController.o
 .debug_info    0x000326df      0xf66 build/default/production/_ext/1494288313/DeltaKinematics.o
 .debug_info    0x00033645     0x170c build/default/production/_ext/1494288313/delta.o
 .debug_info    0x00034d51      0xf5d build/default/production/_ext/519170017/MotionTest.o
 .debug_info    0x00035cae      0xf5e build/default/production/_ext/519170017/Calibration.o
 .debug_info    0x00036c0c     0x1543 build/default/production/_ext/519170017/StepperSim.o
 .debug_info    0x0003814f     0x164e build/default/production/_ext/519170017/servoCalibration.o
 .debug_info    0x0003979d     0x1b79 build/default/production/_ext/519170017/PID.o
 .debug_info    0x0003b316     0x15dc build/default/production/_ext/2048476848/UpstreamPackets.o
 .debug_info    0x0003c8f2     0x173c build/default/production/_ext/2048476848/Namespace_bcs_cartesian.o
 .debug_info    0x0003e02e     0x1578 build/default/production/_ext/2048476848/Callbacks.o
 .debug_info    0x0003f5a6     0x2134 build/default/production/_ext/1445274692/main.o
 .debug_info    0x000416da      0x146 /home/opt/microchip/xc32/v1.00/bin/../lib/gcc/pic32mx/4.5.1/libgcc.a(floatunsisf.o)
 .debug_info    0x00041820       0xcb /home/opt/microchip/xc32/v1.00/bin/../lib/gcc/pic32mx/4.5.1/../../../../pic32mx/lib/libc.a(default-bootstrap-exception-handler.o)
 .debug_info    0x000418eb       0xa5 /home/opt/microchip/xc32/v1.00/bin/../lib/gcc/pic32mx/4.5.1/../../../../pic32mx/lib/libc.a(default-on-reset.o)
 .debug_info    0x00041990       0xad /home/opt/microchip/xc32/v1.00/bin/../lib/gcc/pic32mx/4.5.1/../../../../pic32mx/lib/libc.a(default-on-bootstrap.o)
 .debug_info    0x00041a3d       0xb7 /home/opt/microchip/xc32/v1.00/bin/../lib/gcc/pic32mx/4.5.1/../../../../pic32mx/lib/libm.a(w_atan2f.o)
 .debug_info    0x00041af4       0x99 /home/opt/microchip/xc32/v1.00/bin/../lib/gcc/pic32mx/4.5.1/../../../../pic32mx/lib/libm.a(w_sqrtf.o)
 .debug_info    0x00041b8d        0x0 /home/opt/microchip/xc32/v1.00/bin/../lib/gcc/pic32mx/4.5.1/../../../../pic32mx/lib/libm.a(s_lib_ver.o)
 .debug_info    0x00041b8d       0xcf /home/opt/microchip/xc32/v1.00/bin/../lib/gcc/pic32mx/4.5.1/../../../../pic32mx/lib/libm.a(cabs.o)
 .debug_info    0x00041c5c      0x18f /home/opt/microchip/xc32/v1.00/bin/../lib/gcc/pic32mx/4.5.1/../../../../pic32mx/lib/libm.a(support.o)
 .debug_info    0x00041deb       0xa0 /home/opt/microchip/xc32/v1.00/bin/../lib/gcc/pic32mx/4.5.1/../../../../pic32mx/lib/libm.a(w_ldexp.o)
 .debug_info    0x00041e8b       0x97 /home/opt/microchip/xc32/v1.00/bin/../lib/gcc/pic32mx/4.5.1/../../../../pic32mx/lib/libm.a(w_sqrt.o)
 .debug_info    0x00041f22        0x0 /home/opt/microchip/xc32/v1.00/bin/../lib/gcc/pic32mx/4.5.1/../../../../pic32mx/lib/libc.a(errno.o)
 .debug_info    0x00041f22       0xfc /home/opt/microchip/xc32/v1.00/bin/../lib/gcc/pic32mx/4.5.1/../../../../pic32mx/lib/libc.a(isinf.o)
 .debug_info    0x0004201e       0xaa /home/opt/microchip/xc32/v1.00/bin/../lib/gcc/pic32mx/4.5.1/../../../../pic32mx/lib/libe.a(_unorddf2.o)
 .debug_info    0x000420c8       0xd4 /home/opt/microchip/xc32/v1.00/bin/../lib/gcc/pic32mx/4.5.1/../../../../pic32mx/lib/libmchp_peripheral_32MX440F128H.a(pcache.o)
 .debug_info    0x0004219c       0xc9 /home/opt/microchip/xc32/v1.00/bin/../lib/gcc/pic32mx/4.5.1/../../../../pic32mx/lib/libmchp_peripheral_32MX440F128H.a(int_enable_interrupts_lib.o)
 .debug_info    0x00042265       0xcb /home/opt/microchip/xc32/v1.00/bin/../lib/gcc/pic32mx/4.5.1/../../../../pic32mx/lib/libmchp_peripheral_32MX440F128H.a(int_disable_interrupts_lib.o)
 .debug_info    0x00042330       0xcb /home/opt/microchip/xc32/v1.00/bin/../lib/gcc/pic32mx/4.5.1/../../../../pic32mx/lib/libmchp_peripheral_32MX440F128H.a(int_restore_interrupts_lib.o)
 .debug_info    0x000423fb       0xd1 /home/opt/microchip/xc32/v1.00/bin/../lib/gcc/pic32mx/4.5.1/../../../../pic32mx/lib/libmchp_peripheral_32MX440F128H.a(int_enable_mv_int_lib.o)
 .debug_info    0x000424cc      0x1ab /home/opt/microchip/xc32/v1.00/bin/../lib/gcc/pic32mx/4.5.1/../../../../pic32mx/lib/libmchp_peripheral_32MX440F128H.a(int_tbl_lib.o)
 .debug_info    0x00042677       0xd1 /home/opt/microchip/xc32/v1.00/bin/../lib/gcc/pic32mx/4.5.1/../../../../pic32mx/lib/libmchp_peripheral_32MX440F128H.a(spi_chn_getc_lib.o)
 .debug_info    0x00042748       0xed /home/opt/microchip/xc32/v1.00/bin/../lib/gcc/pic32mx/4.5.1/../../../../pic32mx/lib/libmchp_peripheral_32MX440F128H.a(spi_chn_putc_lib.o)
 .debug_info    0x00042835        0x0 /home/opt/microchip/xc32/v1.00/bin/../lib/gcc/pic32mx/4.5.1/../../../../pic32mx/lib/libmchp_peripheral_32MX440F128H.a(spi_map_tbl_libp.o)
 .debug_info    0x00042835       0xbd /home/opt/microchip/xc32/v1.00/bin/../lib/gcc/pic32mx/4.5.1/../../../../pic32mx/lib/libmchp_peripheral_32MX440F128H.a(spi_open_spi2_lib_legacy.o)
 .debug_info    0x000428f2        0x0 /home/opt/microchip/xc32/v1.00/bin/../lib/gcc/pic32mx/4.5.1/../../../../pic32mx/lib/libmchp_peripheral_32MX440F128H.a(spi_brg_tbl_lib_legacy.o)
 .debug_info    0x000428f2       0xbb /home/opt/microchip/xc32/v1.00/bin/../lib/gcc/pic32mx/4.5.1/../../../../pic32mx/lib/libmchp_peripheral_32MX440F128H.a(nvm_erase_page_lib.o)
 .debug_info    0x000429ad       0xdc /home/opt/microchip/xc32/v1.00/bin/../lib/gcc/pic32mx/4.5.1/../../../../pic32mx/lib/libmchp_peripheral_32MX440F128H.a(nvm_operation_lib.o)
 .debug_info    0x00042a89       0xbb /home/opt/microchip/xc32/v1.00/bin/../lib/gcc/pic32mx/4.5.1/../../../../pic32mx/lib/libmchp_peripheral_32MX440F128H.a(nvm_write_word_lib.o)
 .debug_info    0x00042b44       0xd1 /home/opt/microchip/xc32/v1.00/bin/../lib/gcc/pic32mx/4.5.1/../../../../pic32mx/lib/libmchp_peripheral_32MX440F128H.a(port_set_pins_digital_out_lib.o)
 .debug_info    0x00042c15       0xbf /home/opt/microchip/xc32/v1.00/bin/../lib/gcc/pic32mx/4.5.1/../../../../pic32mx/lib/libmchp_peripheral_32MX440F128H.a(port_clear_bits_lib.o)
 .debug_info    0x00042cd4       0xbb /home/opt/microchip/xc32/v1.00/bin/../lib/gcc/pic32mx/4.5.1/../../../../pic32mx/lib/libmchp_peripheral_32MX440F128H.a(port_set_bits_lib.o)
 .debug_info    0x00042d8f        0x0 /home/opt/microchip/xc32/v1.00/bin/../lib/gcc/pic32mx/4.5.1/../../../../pic32mx/lib/libmchp_peripheral_32MX440F128H.a(_ports_tbl_libp.o)
 .debug_info    0x00042d8f      0x18a /home/opt/microchip/xc32/v1.00/bin/../lib/gcc/pic32mx/4.5.1/../../../../pic32mx/lib/libmchp_peripheral_32MX440F128H.a(uart_lib.o)

.debug_abbrev   0x00000000     0x64bd
 *(.debug_abbrev)
 .debug_abbrev  0x00000000      0x209 build/default/production/_ext/1487882678/usb_descriptors.o
 .debug_abbrev  0x00000209      0x2e3 build/default/production/_ext/1487882678/usb_function_cdc.o
 .debug_abbrev  0x000004ec      0x289 build/default/production/_ext/1487882678/usb_fifo.o
 .debug_abbrev  0x00000775      0x23e build/default/production/_ext/1487882678/usb_callback.o
 .debug_abbrev  0x000009b3      0x166 build/default/production/_ext/1487882678/usb_interrupt.o
 .debug_abbrev  0x00000b19      0x2c0 build/default/production/_ext/1487882678/usb_device.o
 .debug_abbrev  0x00000dd9      0x1b0 build/default/production/_ext/2118813141/Delay.o
 .debug_abbrev  0x00000f89      0x20f build/default/production/_ext/2118813141/FlashStorage.o
 .debug_abbrev  0x00001198      0x2a1 build/default/production/_ext/2118813141/HAL_P32.o
 .debug_abbrev  0x00001439      0x1b7 build/default/production/_ext/2118813141/LED.o
 .debug_abbrev  0x000015f0      0x20b build/default/production/_ext/2118813141/Tick.o
 .debug_abbrev  0x000017fb      0x279 build/default/production/_ext/2118813141/Bowler_UART_HAL.o
 .debug_abbrev  0x00001a74      0x231 build/default/production/_ext/2118813141/UART.o
 .debug_abbrev  0x00001ca5      0x1db build/default/production/_ext/2118813141/ADC.o
 .debug_abbrev  0x00001e80      0x1d4 build/default/production/_ext/2118813141/Bowler_USB_HAL.o
 .debug_abbrev  0x00002054      0x23d build/default/production/_ext/1080174469/Bowler_Helper.o
 .debug_abbrev  0x00002291      0x282 build/default/production/_ext/1080174469/AbstractPID.o
 .debug_abbrev  0x00002513      0x166 build/default/production/_ext/1080174469/Bowler_Stack_Callback.o
 .debug_abbrev  0x00002679      0x24c build/default/production/_ext/1080174469/FIFO.o
 .debug_abbrev  0x000028c5      0x256 build/default/production/_ext/1080174469/Bowler_RPC_Process.o
 .debug_abbrev  0x00002b1b      0x244 build/default/production/_ext/1080174469/Bowler_Transport.o
 .debug_abbrev  0x00002d5f      0x2b0 build/default/production/_ext/1080174469/Debug.o
 .debug_abbrev  0x0000300f      0x1ac build/default/production/_ext/1080174469/Scheduler.o
 .debug_abbrev  0x000031bb      0x28b build/default/production/_ext/1080174469/Bowler_Server.o
 .debug_abbrev  0x00003446      0x2a8 build/default/production/_ext/1080174469/Namespace_bcs_core.o
 .debug_abbrev  0x000036ee      0x242 build/default/production/_ext/1080174469/Namespace_bcs_pid.o
 .debug_abbrev  0x00003930      0x251 build/default/production/_ext/1080174469/Namespace_bcs_rpc.o
 .debug_abbrev  0x00003b81      0x2b1 build/default/production/_ext/263962707/Servo.o
 .debug_abbrev  0x00003e32      0x19d build/default/production/_ext/263962707/SPIClient.o
 .debug_abbrev  0x00003fcf      0x217 build/default/production/_ext/263962707/ForgeHeater.o
 .debug_abbrev  0x000041e6      0x292 build/default/production/_ext/263962707/AS5055.o
 .debug_abbrev  0x00004478       0x7a build/default/production/_ext/1494288313/KosselKinematics.o
 .debug_abbrev  0x000044f2      0x357 build/default/production/_ext/1494288313/CartesianController.o
 .debug_abbrev  0x00004849      0x166 build/default/production/_ext/1494288313/DeltaKinematics.o
 .debug_abbrev  0x000049af      0x1ee build/default/production/_ext/1494288313/delta.o
 .debug_abbrev  0x00004b9d      0x166 build/default/production/_ext/519170017/MotionTest.o
 .debug_abbrev  0x00004d03      0x166 build/default/production/_ext/519170017/Calibration.o
 .debug_abbrev  0x00004e69      0x1ca build/default/production/_ext/519170017/StepperSim.o
 .debug_abbrev  0x00005033      0x250 build/default/production/_ext/519170017/servoCalibration.o
 .debug_abbrev  0x00005283      0x2aa build/default/production/_ext/519170017/PID.o
 .debug_abbrev  0x0000552d      0x219 build/default/production/_ext/2048476848/UpstreamPackets.o
 .debug_abbrev  0x00005746      0x258 build/default/production/_ext/2048476848/Namespace_bcs_cartesian.o
 .debug_abbrev  0x0000599e      0x242 build/default/production/_ext/2048476848/Callbacks.o
 .debug_abbrev  0x00005be0      0x3f2 build/default/production/_ext/1445274692/main.o
 .debug_abbrev  0x00005fd2       0x61 /home/opt/microchip/xc32/v1.00/bin/../lib/gcc/pic32mx/4.5.1/libgcc.a(floatunsisf.o)
 .debug_abbrev  0x00006033       0x25 /home/opt/microchip/xc32/v1.00/bin/../lib/gcc/pic32mx/4.5.1/../../../../pic32mx/lib/libc.a(default-bootstrap-exception-handler.o)
 .debug_abbrev  0x00006058       0x25 /home/opt/microchip/xc32/v1.00/bin/../lib/gcc/pic32mx/4.5.1/../../../../pic32mx/lib/libc.a(default-on-reset.o)
 .debug_abbrev  0x0000607d       0x25 /home/opt/microchip/xc32/v1.00/bin/../lib/gcc/pic32mx/4.5.1/../../../../pic32mx/lib/libc.a(default-on-bootstrap.o)
 .debug_abbrev  0x000060a2       0x41 /home/opt/microchip/xc32/v1.00/bin/../lib/gcc/pic32mx/4.5.1/../../../../pic32mx/lib/libm.a(w_atan2f.o)
 .debug_abbrev  0x000060e3       0x25 /home/opt/microchip/xc32/v1.00/bin/../lib/gcc/pic32mx/4.5.1/../../../../pic32mx/lib/libm.a(w_sqrtf.o)
 .debug_abbrev  0x00006108        0x1 /home/opt/microchip/xc32/v1.00/bin/../lib/gcc/pic32mx/4.5.1/../../../../pic32mx/lib/libm.a(s_lib_ver.o)
 .debug_abbrev  0x00006109       0x49 /home/opt/microchip/xc32/v1.00/bin/../lib/gcc/pic32mx/4.5.1/../../../../pic32mx/lib/libm.a(cabs.o)
 .debug_abbrev  0x00006152       0x54 /home/opt/microchip/xc32/v1.00/bin/../lib/gcc/pic32mx/4.5.1/../../../../pic32mx/lib/libm.a(support.o)
 .debug_abbrev  0x000061a6       0x25 /home/opt/microchip/xc32/v1.00/bin/../lib/gcc/pic32mx/4.5.1/../../../../pic32mx/lib/libm.a(w_ldexp.o)
 .debug_abbrev  0x000061cb       0x25 /home/opt/microchip/xc32/v1.00/bin/../lib/gcc/pic32mx/4.5.1/../../../../pic32mx/lib/libm.a(w_sqrt.o)
 .debug_abbrev  0x000061f0        0x1 /home/opt/microchip/xc32/v1.00/bin/../lib/gcc/pic32mx/4.5.1/../../../../pic32mx/lib/libc.a(errno.o)
 .debug_abbrev  0x000061f1       0x25 /home/opt/microchip/xc32/v1.00/bin/../lib/gcc/pic32mx/4.5.1/../../../../pic32mx/lib/libc.a(isinf.o)
 .debug_abbrev  0x00006216       0x32 /home/opt/microchip/xc32/v1.00/bin/../lib/gcc/pic32mx/4.5.1/../../../../pic32mx/lib/libe.a(_unorddf2.o)
 .debug_abbrev  0x00006248       0x25 /home/opt/microchip/xc32/v1.00/bin/../lib/gcc/pic32mx/4.5.1/../../../../pic32mx/lib/libmchp_peripheral_32MX440F128H.a(pcache.o)
 .debug_abbrev  0x0000626d       0x25 /home/opt/microchip/xc32/v1.00/bin/../lib/gcc/pic32mx/4.5.1/../../../../pic32mx/lib/libmchp_peripheral_32MX440F128H.a(int_enable_interrupts_lib.o)
 .debug_abbrev  0x00006292       0x25 /home/opt/microchip/xc32/v1.00/bin/../lib/gcc/pic32mx/4.5.1/../../../../pic32mx/lib/libmchp_peripheral_32MX440F128H.a(int_disable_interrupts_lib.o)
 .debug_abbrev  0x000062b7       0x25 /home/opt/microchip/xc32/v1.00/bin/../lib/gcc/pic32mx/4.5.1/../../../../pic32mx/lib/libmchp_peripheral_32MX440F128H.a(int_restore_interrupts_lib.o)
 .debug_abbrev  0x000062dc       0x25 /home/opt/microchip/xc32/v1.00/bin/../lib/gcc/pic32mx/4.5.1/../../../../pic32mx/lib/libmchp_peripheral_32MX440F128H.a(int_enable_mv_int_lib.o)
 .debug_abbrev  0x00006301       0x25 /home/opt/microchip/xc32/v1.00/bin/../lib/gcc/pic32mx/4.5.1/../../../../pic32mx/lib/libmchp_peripheral_32MX440F128H.a(int_tbl_lib.o)
 .debug_abbrev  0x00006326       0x25 /home/opt/microchip/xc32/v1.00/bin/../lib/gcc/pic32mx/4.5.1/../../../../pic32mx/lib/libmchp_peripheral_32MX440F128H.a(spi_chn_getc_lib.o)
 .debug_abbrev  0x0000634b       0x25 /home/opt/microchip/xc32/v1.00/bin/../lib/gcc/pic32mx/4.5.1/../../../../pic32mx/lib/libmchp_peripheral_32MX440F128H.a(spi_chn_putc_lib.o)
 .debug_abbrev  0x00006370        0x1 /home/opt/microchip/xc32/v1.00/bin/../lib/gcc/pic32mx/4.5.1/../../../../pic32mx/lib/libmchp_peripheral_32MX440F128H.a(spi_map_tbl_libp.o)
 .debug_abbrev  0x00006371       0x25 /home/opt/microchip/xc32/v1.00/bin/../lib/gcc/pic32mx/4.5.1/../../../../pic32mx/lib/libmchp_peripheral_32MX440F128H.a(spi_open_spi2_lib_legacy.o)
 .debug_abbrev  0x00006396        0x1 /home/opt/microchip/xc32/v1.00/bin/../lib/gcc/pic32mx/4.5.1/../../../../pic32mx/lib/libmchp_peripheral_32MX440F128H.a(spi_brg_tbl_lib_legacy.o)
 .debug_abbrev  0x00006397       0x25 /home/opt/microchip/xc32/v1.00/bin/../lib/gcc/pic32mx/4.5.1/../../../../pic32mx/lib/libmchp_peripheral_32MX440F128H.a(nvm_erase_page_lib.o)
 .debug_abbrev  0x000063bc       0x34 /home/opt/microchip/xc32/v1.00/bin/../lib/gcc/pic32mx/4.5.1/../../../../pic32mx/lib/libmchp_peripheral_32MX440F128H.a(nvm_operation_lib.o)
 .debug_abbrev  0x000063f0       0x25 /home/opt/microchip/xc32/v1.00/bin/../lib/gcc/pic32mx/4.5.1/../../../../pic32mx/lib/libmchp_peripheral_32MX440F128H.a(nvm_write_word_lib.o)
 .debug_abbrev  0x00006415       0x25 /home/opt/microchip/xc32/v1.00/bin/../lib/gcc/pic32mx/4.5.1/../../../../pic32mx/lib/libmchp_peripheral_32MX440F128H.a(port_set_pins_digital_out_lib.o)
 .debug_abbrev  0x0000643a       0x25 /home/opt/microchip/xc32/v1.00/bin/../lib/gcc/pic32mx/4.5.1/../../../../pic32mx/lib/libmchp_peripheral_32MX440F128H.a(port_clear_bits_lib.o)
 .debug_abbrev  0x0000645f       0x25 /home/opt/microchip/xc32/v1.00/bin/../lib/gcc/pic32mx/4.5.1/../../../../pic32mx/lib/libmchp_peripheral_32MX440F128H.a(port_set_bits_lib.o)
 .debug_abbrev  0x00006484        0x1 /home/opt/microchip/xc32/v1.00/bin/../lib/gcc/pic32mx/4.5.1/../../../../pic32mx/lib/libmchp_peripheral_32MX440F128H.a(_ports_tbl_libp.o)
 .debug_abbrev  0x00006485       0x38 /home/opt/microchip/xc32/v1.00/bin/../lib/gcc/pic32mx/4.5.1/../../../../pic32mx/lib/libmchp_peripheral_32MX440F128H.a(uart_lib.o)

.debug_line     0x00000000     0x7487
 *(.debug_line)
 .debug_line    0x00000000      0x244 build/default/production/_ext/1487882678/usb_descriptors.o
 .debug_line    0x00000244      0x339 build/default/production/_ext/1487882678/usb_function_cdc.o
 .debug_line    0x0000057d      0x304 build/default/production/_ext/1487882678/usb_fifo.o
 .debug_line    0x00000881      0x285 build/default/production/_ext/1487882678/usb_callback.o
 .debug_line    0x00000b06      0x133 build/default/production/_ext/1487882678/usb_interrupt.o
 .debug_line    0x00000c39      0x621 build/default/production/_ext/1487882678/usb_device.o
 .debug_line    0x0000125a      0x1d6 build/default/production/_ext/2118813141/Delay.o
 .debug_line    0x00001430      0x295 build/default/production/_ext/2118813141/FlashStorage.o
 .debug_line    0x000016c5      0x277 build/default/production/_ext/2118813141/HAL_P32.o
 .debug_line    0x0000193c      0x1dd build/default/production/_ext/2118813141/LED.o
 .debug_line    0x00001b19      0x22d build/default/production/_ext/2118813141/Tick.o
 .debug_line    0x00001d46      0x293 build/default/production/_ext/2118813141/Bowler_UART_HAL.o
 .debug_line    0x00001fd9      0x211 build/default/production/_ext/2118813141/UART.o
 .debug_line    0x000021ea      0x20f build/default/production/_ext/2118813141/ADC.o
 .debug_line    0x000023f9      0x1cb build/default/production/_ext/2118813141/Bowler_USB_HAL.o
 .debug_line    0x000025c4      0x24c build/default/production/_ext/1080174469/Bowler_Helper.o
 .debug_line    0x00002810      0x485 build/default/production/_ext/1080174469/AbstractPID.o
 .debug_line    0x00002c95      0x133 build/default/production/_ext/1080174469/Bowler_Stack_Callback.o
 .debug_line    0x00002dc8      0x292 build/default/production/_ext/1080174469/FIFO.o
 .debug_line    0x0000305a      0x229 build/default/production/_ext/1080174469/Bowler_RPC_Process.o
 .debug_line    0x00003283      0x232 build/default/production/_ext/1080174469/Bowler_Transport.o
 .debug_line    0x000034b5      0x348 build/default/production/_ext/1080174469/Debug.o
 .debug_line    0x000037fd      0x199 build/default/production/_ext/1080174469/Scheduler.o
 .debug_line    0x00003996      0x23a build/default/production/_ext/1080174469/Bowler_Server.o
 .debug_line    0x00003bd0      0x2b1 build/default/production/_ext/1080174469/Namespace_bcs_core.o
 .debug_line    0x00003e81      0x206 build/default/production/_ext/1080174469/Namespace_bcs_pid.o
 .debug_line    0x00004087      0x242 build/default/production/_ext/1080174469/Namespace_bcs_rpc.o
 .debug_line    0x000042c9      0x31b build/default/production/_ext/263962707/Servo.o
 .debug_line    0x000045e4      0x162 build/default/production/_ext/263962707/SPIClient.o
 .debug_line    0x00004746      0x240 build/default/production/_ext/263962707/ForgeHeater.o
 .debug_line    0x00004986      0x2f0 build/default/production/_ext/263962707/AS5055.o
 .debug_line    0x00004c76      0x135 build/default/production/_ext/1494288313/KosselKinematics.o
 .debug_line    0x00004dab      0x3bc build/default/production/_ext/1494288313/CartesianController.o
 .debug_line    0x00005167      0x128 build/default/production/_ext/1494288313/DeltaKinematics.o
 .debug_line    0x0000528f      0x244 build/default/production/_ext/1494288313/delta.o
 .debug_line    0x000054d3      0x128 build/default/production/_ext/519170017/MotionTest.o
 .debug_line    0x000055fb      0x128 build/default/production/_ext/519170017/Calibration.o
 .debug_line    0x00005723      0x1b8 build/default/production/_ext/519170017/StepperSim.o
 .debug_line    0x000058db      0x267 build/default/production/_ext/519170017/servoCalibration.o
 .debug_line    0x00005b42      0x2dc build/default/production/_ext/519170017/PID.o
 .debug_line    0x00005e1e      0x245 build/default/production/_ext/2048476848/UpstreamPackets.o
 .debug_line    0x00006063      0x1f8 build/default/production/_ext/2048476848/Namespace_bcs_cartesian.o
 .debug_line    0x0000625b      0x20a build/default/production/_ext/2048476848/Callbacks.o
 .debug_line    0x00006465      0x3b5 build/default/production/_ext/1445274692/main.o
 .debug_line    0x0000681a       0x6d /home/opt/microchip/xc32/v1.00/bin/../lib/gcc/pic32mx/4.5.1/libgcc.a(floatunsisf.o)
 .debug_line    0x00006887       0x89 /home/opt/microchip/xc32/v1.00/bin/../lib/gcc/pic32mx/4.5.1/../../../../pic32mx/lib/libc.a(default-bootstrap-exception-handler.o)
 .debug_line    0x00006910       0x76 /home/opt/microchip/xc32/v1.00/bin/../lib/gcc/pic32mx/4.5.1/../../../../pic32mx/lib/libc.a(default-on-reset.o)
 .debug_line    0x00006986       0x7a /home/opt/microchip/xc32/v1.00/bin/../lib/gcc/pic32mx/4.5.1/../../../../pic32mx/lib/libc.a(default-on-bootstrap.o)
 .debug_line    0x00006a00       0x6f /home/opt/microchip/xc32/v1.00/bin/../lib/gcc/pic32mx/4.5.1/../../../../pic32mx/lib/libm.a(w_atan2f.o)
 .debug_line    0x00006a6f       0x6e /home/opt/microchip/xc32/v1.00/bin/../lib/gcc/pic32mx/4.5.1/../../../../pic32mx/lib/libm.a(w_sqrtf.o)
 .debug_line    0x00006add        0x0 /home/opt/microchip/xc32/v1.00/bin/../lib/gcc/pic32mx/4.5.1/../../../../pic32mx/lib/libm.a(s_lib_ver.o)
 .debug_line    0x00006add       0x69 /home/opt/microchip/xc32/v1.00/bin/../lib/gcc/pic32mx/4.5.1/../../../../pic32mx/lib/libm.a(cabs.o)
 .debug_line    0x00006b46       0x6c /home/opt/microchip/xc32/v1.00/bin/../lib/gcc/pic32mx/4.5.1/../../../../pic32mx/lib/libm.a(support.o)
 .debug_line    0x00006bb2       0x75 /home/opt/microchip/xc32/v1.00/bin/../lib/gcc/pic32mx/4.5.1/../../../../pic32mx/lib/libm.a(w_ldexp.o)
 .debug_line    0x00006c27       0x6d /home/opt/microchip/xc32/v1.00/bin/../lib/gcc/pic32mx/4.5.1/../../../../pic32mx/lib/libm.a(w_sqrt.o)
 .debug_line    0x00006c94        0x0 /home/opt/microchip/xc32/v1.00/bin/../lib/gcc/pic32mx/4.5.1/../../../../pic32mx/lib/libc.a(errno.o)
 .debug_line    0x00006c94       0x69 /home/opt/microchip/xc32/v1.00/bin/../lib/gcc/pic32mx/4.5.1/../../../../pic32mx/lib/libc.a(isinf.o)
 .debug_line    0x00006cfd       0x75 /home/opt/microchip/xc32/v1.00/bin/../lib/gcc/pic32mx/4.5.1/../../../../pic32mx/lib/libe.a(_unorddf2.o)
 .debug_line    0x00006d72       0x62 /home/opt/microchip/xc32/v1.00/bin/../lib/gcc/pic32mx/4.5.1/../../../../pic32mx/lib/libmchp_peripheral_32MX440F128H.a(pcache.o)
 .debug_line    0x00006dd4       0x72 /home/opt/microchip/xc32/v1.00/bin/../lib/gcc/pic32mx/4.5.1/../../../../pic32mx/lib/libmchp_peripheral_32MX440F128H.a(int_enable_interrupts_lib.o)
 .debug_line    0x00006e46       0x73 /home/opt/microchip/xc32/v1.00/bin/../lib/gcc/pic32mx/4.5.1/../../../../pic32mx/lib/libmchp_peripheral_32MX440F128H.a(int_disable_interrupts_lib.o)
 .debug_line    0x00006eb9       0x73 /home/opt/microchip/xc32/v1.00/bin/../lib/gcc/pic32mx/4.5.1/../../../../pic32mx/lib/libmchp_peripheral_32MX440F128H.a(int_restore_interrupts_lib.o)
 .debug_line    0x00006f2c       0x6e /home/opt/microchip/xc32/v1.00/bin/../lib/gcc/pic32mx/4.5.1/../../../../pic32mx/lib/libmchp_peripheral_32MX440F128H.a(int_enable_mv_int_lib.o)
 .debug_line    0x00006f9a       0x64 /home/opt/microchip/xc32/v1.00/bin/../lib/gcc/pic32mx/4.5.1/../../../../pic32mx/lib/libmchp_peripheral_32MX440F128H.a(int_tbl_lib.o)
 .debug_line    0x00006ffe       0x69 /home/opt/microchip/xc32/v1.00/bin/../lib/gcc/pic32mx/4.5.1/../../../../pic32mx/lib/libmchp_peripheral_32MX440F128H.a(spi_chn_getc_lib.o)
 .debug_line    0x00007067       0x69 /home/opt/microchip/xc32/v1.00/bin/../lib/gcc/pic32mx/4.5.1/../../../../pic32mx/lib/libmchp_peripheral_32MX440F128H.a(spi_chn_putc_lib.o)
 .debug_line    0x000070d0        0x0 /home/opt/microchip/xc32/v1.00/bin/../lib/gcc/pic32mx/4.5.1/../../../../pic32mx/lib/libmchp_peripheral_32MX440F128H.a(spi_map_tbl_libp.o)
 .debug_line    0x000070d0       0x71 /home/opt/microchip/xc32/v1.00/bin/../lib/gcc/pic32mx/4.5.1/../../../../pic32mx/lib/libmchp_peripheral_32MX440F128H.a(spi_open_spi2_lib_legacy.o)
 .debug_line    0x00007141        0x0 /home/opt/microchip/xc32/v1.00/bin/../lib/gcc/pic32mx/4.5.1/../../../../pic32mx/lib/libmchp_peripheral_32MX440F128H.a(spi_brg_tbl_lib_legacy.o)
 .debug_line    0x00007141       0x6b /home/opt/microchip/xc32/v1.00/bin/../lib/gcc/pic32mx/4.5.1/../../../../pic32mx/lib/libmchp_peripheral_32MX440F128H.a(nvm_erase_page_lib.o)
 .debug_line    0x000071ac       0xbc /home/opt/microchip/xc32/v1.00/bin/../lib/gcc/pic32mx/4.5.1/../../../../pic32mx/lib/libmchp_peripheral_32MX440F128H.a(nvm_operation_lib.o)
 .debug_line    0x00007268       0x6b /home/opt/microchip/xc32/v1.00/bin/../lib/gcc/pic32mx/4.5.1/../../../../pic32mx/lib/libmchp_peripheral_32MX440F128H.a(nvm_write_word_lib.o)
 .debug_line    0x000072d3       0x78 /home/opt/microchip/xc32/v1.00/bin/../lib/gcc/pic32mx/4.5.1/../../../../pic32mx/lib/libmchp_peripheral_32MX440F128H.a(port_set_pins_digital_out_lib.o)
 .debug_line    0x0000734b       0x6e /home/opt/microchip/xc32/v1.00/bin/../lib/gcc/pic32mx/4.5.1/../../../../pic32mx/lib/libmchp_peripheral_32MX440F128H.a(port_clear_bits_lib.o)
 .debug_line    0x000073b9       0x6c /home/opt/microchip/xc32/v1.00/bin/../lib/gcc/pic32mx/4.5.1/../../../../pic32mx/lib/libmchp_peripheral_32MX440F128H.a(port_set_bits_lib.o)
 .debug_line    0x00007425        0x0 /home/opt/microchip/xc32/v1.00/bin/../lib/gcc/pic32mx/4.5.1/../../../../pic32mx/lib/libmchp_peripheral_32MX440F128H.a(_ports_tbl_libp.o)
 .debug_line    0x00007425       0x62 /home/opt/microchip/xc32/v1.00/bin/../lib/gcc/pic32mx/4.5.1/../../../../pic32mx/lib/libmchp_peripheral_32MX440F128H.a(uart_lib.o)

.debug_frame    0x00000000     0x2f14
 *(.debug_frame)
 .debug_frame   0x00000000       0x64 build/default/production/_ext/1487882678/usb_descriptors.o
 .debug_frame   0x00000064       0xf0 build/default/production/_ext/1487882678/usb_function_cdc.o
 .debug_frame   0x00000154      0x164 build/default/production/_ext/1487882678/usb_fifo.o
 .debug_frame   0x000002b8      0x128 build/default/production/_ext/1487882678/usb_callback.o
 .debug_frame   0x000003e0      0x310 build/default/production/_ext/1487882678/usb_device.o
 .debug_frame   0x000006f0       0x9c build/default/production/_ext/2118813141/Delay.o
 .debug_frame   0x0000078c      0x128 build/default/production/_ext/2118813141/FlashStorage.o
 .debug_frame   0x000008b4      0x128 build/default/production/_ext/2118813141/HAL_P32.o
 .debug_frame   0x000009dc       0x9c build/default/production/_ext/2118813141/LED.o
 .debug_frame   0x00000a78       0xdc build/default/production/_ext/2118813141/Tick.o
 .debug_frame   0x00000b54      0x148 build/default/production/_ext/2118813141/Bowler_UART_HAL.o
 .debug_frame   0x00000c9c       0x48 build/default/production/_ext/2118813141/UART.o
 .debug_frame   0x00000ce4       0x64 build/default/production/_ext/2118813141/ADC.o
 .debug_frame   0x00000d48       0x64 build/default/production/_ext/2118813141/Bowler_USB_HAL.o
 .debug_frame   0x00000dac      0x1bc build/default/production/_ext/1080174469/Bowler_Helper.o
 .debug_frame   0x00000f68      0x44c build/default/production/_ext/1080174469/AbstractPID.o
 .debug_frame   0x000013b4      0x1f4 build/default/production/_ext/1080174469/FIFO.o
 .debug_frame   0x000015a8       0x4c build/default/production/_ext/1080174469/Bowler_RPC_Process.o
 .debug_frame   0x000015f4       0xf4 build/default/production/_ext/1080174469/Bowler_Transport.o
 .debug_frame   0x000016e8      0x1ec build/default/production/_ext/1080174469/Debug.o
 .debug_frame   0x000018d4       0x30 build/default/production/_ext/1080174469/Scheduler.o
 .debug_frame   0x00001904       0x88 build/default/production/_ext/1080174469/Bowler_Server.o
 .debug_frame   0x0000198c      0x148 build/default/production/_ext/1080174469/Namespace_bcs_core.o
 .debug_frame   0x00001ad4       0x48 build/default/production/_ext/1080174469/Namespace_bcs_pid.o
 .debug_frame   0x00001b1c       0x64 build/default/production/_ext/1080174469/Namespace_bcs_rpc.o
 .debug_frame   0x00001b80      0x1e8 build/default/production/_ext/263962707/Servo.o
 .debug_frame   0x00001d68       0x48 build/default/production/_ext/263962707/SPIClient.o
 .debug_frame   0x00001db0      0x100 build/default/production/_ext/263962707/ForgeHeater.o
 .debug_frame   0x00001eb0      0x184 build/default/production/_ext/263962707/AS5055.o
 .debug_frame   0x00002034       0x30 build/default/production/_ext/1494288313/KosselKinematics.o
 .debug_frame   0x00002064      0x250 build/default/production/_ext/1494288313/CartesianController.o
 .debug_frame   0x000022b4       0xac build/default/production/_ext/1494288313/delta.o
 .debug_frame   0x00002360       0x8c build/default/production/_ext/519170017/StepperSim.o
 .debug_frame   0x000023ec       0xf4 build/default/production/_ext/519170017/servoCalibration.o
 .debug_frame   0x000024e0      0x14c build/default/production/_ext/519170017/PID.o
 .debug_frame   0x0000262c       0x6c build/default/production/_ext/2048476848/UpstreamPackets.o
 .debug_frame   0x00002698       0x48 build/default/production/_ext/2048476848/Namespace_bcs_cartesian.o
 .debug_frame   0x000026e0       0x64 build/default/production/_ext/2048476848/Callbacks.o
 .debug_frame   0x00002744       0xdc build/default/production/_ext/1445274692/main.o
 .debug_frame   0x00002820       0x28 /home/opt/microchip/xc32/v1.00/bin/../lib/gcc/pic32mx/4.5.1/libgcc.a(floatunsisf.o)
 .debug_frame   0x00002848       0x20 /home/opt/microchip/xc32/v1.00/bin/../lib/gcc/pic32mx/4.5.1/../../../../pic32mx/lib/libc.a(default-bootstrap-exception-handler.o)
 .debug_frame   0x00002868       0x20 /home/opt/microchip/xc32/v1.00/bin/../lib/gcc/pic32mx/4.5.1/../../../../pic32mx/lib/libc.a(default-on-reset.o)
 .debug_frame   0x00002888       0x20 /home/opt/microchip/xc32/v1.00/bin/../lib/gcc/pic32mx/4.5.1/../../../../pic32mx/lib/libc.a(default-on-bootstrap.o)
 .debug_frame   0x000028a8       0x38 /home/opt/microchip/xc32/v1.00/bin/../lib/gcc/pic32mx/4.5.1/../../../../pic32mx/lib/libm.a(w_atan2f.o)
 .debug_frame   0x000028e0       0x28 /home/opt/microchip/xc32/v1.00/bin/../lib/gcc/pic32mx/4.5.1/../../../../pic32mx/lib/libm.a(w_sqrtf.o)
 .debug_frame   0x00002908       0x6c /home/opt/microchip/xc32/v1.00/bin/../lib/gcc/pic32mx/4.5.1/../../../../pic32mx/lib/libm.a(cabs.o)
 .debug_frame   0x00002974      0x13c /home/opt/microchip/xc32/v1.00/bin/../lib/gcc/pic32mx/4.5.1/../../../../pic32mx/lib/libm.a(support.o)
 .debug_frame   0x00002ab0       0x28 /home/opt/microchip/xc32/v1.00/bin/../lib/gcc/pic32mx/4.5.1/../../../../pic32mx/lib/libm.a(w_ldexp.o)
 .debug_frame   0x00002ad8       0x2c /home/opt/microchip/xc32/v1.00/bin/../lib/gcc/pic32mx/4.5.1/../../../../pic32mx/lib/libm.a(w_sqrt.o)
 .debug_frame   0x00002b04       0xa0 /home/opt/microchip/xc32/v1.00/bin/../lib/gcc/pic32mx/4.5.1/../../../../pic32mx/lib/libc.a(isinf.o)
 .debug_frame   0x00002ba4       0x20 /home/opt/microchip/xc32/v1.00/bin/../lib/gcc/pic32mx/4.5.1/../../../../pic32mx/lib/libe.a(_unorddf2.o)
 .debug_frame   0x00002bc4       0x30 /home/opt/microchip/xc32/v1.00/bin/../lib/gcc/pic32mx/4.5.1/../../../../pic32mx/lib/libmchp_peripheral_32MX440F128H.a(pcache.o)
 .debug_frame   0x00002bf4       0x20 /home/opt/microchip/xc32/v1.00/bin/../lib/gcc/pic32mx/4.5.1/../../../../pic32mx/lib/libmchp_peripheral_32MX440F128H.a(int_enable_interrupts_lib.o)
 .debug_frame   0x00002c14       0x20 /home/opt/microchip/xc32/v1.00/bin/../lib/gcc/pic32mx/4.5.1/../../../../pic32mx/lib/libmchp_peripheral_32MX440F128H.a(int_disable_interrupts_lib.o)
 .debug_frame   0x00002c34       0x20 /home/opt/microchip/xc32/v1.00/bin/../lib/gcc/pic32mx/4.5.1/../../../../pic32mx/lib/libmchp_peripheral_32MX440F128H.a(int_restore_interrupts_lib.o)
 .debug_frame   0x00002c54       0x28 /home/opt/microchip/xc32/v1.00/bin/../lib/gcc/pic32mx/4.5.1/../../../../pic32mx/lib/libmchp_peripheral_32MX440F128H.a(int_enable_mv_int_lib.o)
 .debug_frame   0x00002c7c       0xa0 /home/opt/microchip/xc32/v1.00/bin/../lib/gcc/pic32mx/4.5.1/../../../../pic32mx/lib/libmchp_peripheral_32MX440F128H.a(int_tbl_lib.o)
 .debug_frame   0x00002d1c       0x30 /home/opt/microchip/xc32/v1.00/bin/../lib/gcc/pic32mx/4.5.1/../../../../pic32mx/lib/libmchp_peripheral_32MX440F128H.a(spi_chn_getc_lib.o)
 .debug_frame   0x00002d4c       0x40 /home/opt/microchip/xc32/v1.00/bin/../lib/gcc/pic32mx/4.5.1/../../../../pic32mx/lib/libmchp_peripheral_32MX440F128H.a(spi_chn_putc_lib.o)
 .debug_frame   0x00002d8c       0x20 /home/opt/microchip/xc32/v1.00/bin/../lib/gcc/pic32mx/4.5.1/../../../../pic32mx/lib/libmchp_peripheral_32MX440F128H.a(spi_open_spi2_lib_legacy.o)
 .debug_frame   0x00002dac       0x28 /home/opt/microchip/xc32/v1.00/bin/../lib/gcc/pic32mx/4.5.1/../../../../pic32mx/lib/libmchp_peripheral_32MX440F128H.a(nvm_erase_page_lib.o)
 .debug_frame   0x00002dd4       0x28 /home/opt/microchip/xc32/v1.00/bin/../lib/gcc/pic32mx/4.5.1/../../../../pic32mx/lib/libmchp_peripheral_32MX440F128H.a(nvm_operation_lib.o)
 .debug_frame   0x00002dfc       0x28 /home/opt/microchip/xc32/v1.00/bin/../lib/gcc/pic32mx/4.5.1/../../../../pic32mx/lib/libmchp_peripheral_32MX440F128H.a(nvm_write_word_lib.o)
 .debug_frame   0x00002e24       0x20 /home/opt/microchip/xc32/v1.00/bin/../lib/gcc/pic32mx/4.5.1/../../../../pic32mx/lib/libmchp_peripheral_32MX440F128H.a(port_set_pins_digital_out_lib.o)
 .debug_frame   0x00002e44       0x20 /home/opt/microchip/xc32/v1.00/bin/../lib/gcc/pic32mx/4.5.1/../../../../pic32mx/lib/libmchp_peripheral_32MX440F128H.a(port_clear_bits_lib.o)
 .debug_frame   0x00002e64       0x20 /home/opt/microchip/xc32/v1.00/bin/../lib/gcc/pic32mx/4.5.1/../../../../pic32mx/lib/libmchp_peripheral_32MX440F128H.a(port_set_bits_lib.o)
 .debug_frame   0x00002e84       0x90 /home/opt/microchip/xc32/v1.00/bin/../lib/gcc/pic32mx/4.5.1/../../../../pic32mx/lib/libmchp_peripheral_32MX440F128H.a(uart_lib.o)

.debug_str      0x00000000     0x2d4b
 *(.debug_str)
 .debug_str     0x00000000      0x117 build/default/production/_ext/1487882678/usb_descriptors.o
 .debug_str     0x00000117      0x1cb build/default/production/_ext/1487882678/usb_function_cdc.o
 .debug_str     0x000002e2      0x11a build/default/production/_ext/1487882678/usb_fifo.o
 .debug_str     0x000003fc       0xf7 build/default/production/_ext/1487882678/usb_callback.o
 .debug_str     0x000004f3       0xe2 build/default/production/_ext/1487882678/usb_interrupt.o
 .debug_str     0x000005d5      0x2ab build/default/production/_ext/1487882678/usb_device.o
 .debug_str     0x00000880       0xe2 build/default/production/_ext/2118813141/Delay.o
 .debug_str     0x00000962       0xe2 build/default/production/_ext/2118813141/FlashStorage.o
 .debug_str     0x00000a44       0xe9 build/default/production/_ext/2118813141/HAL_P32.o
 .debug_str     0x00000b2d       0xe2 build/default/production/_ext/2118813141/LED.o
 .debug_str     0x00000c0f       0xeb build/default/production/_ext/2118813141/Tick.o
 .debug_str     0x00000cfa      0x100 build/default/production/_ext/2118813141/Bowler_UART_HAL.o
 .debug_str     0x00000dfa       0xe2 build/default/production/_ext/2118813141/UART.o
 .debug_str     0x00000edc      0x15f build/default/production/_ext/2118813141/ADC.o
 .debug_str     0x0000103b       0xe2 build/default/production/_ext/2118813141/Bowler_USB_HAL.o
 .debug_str     0x0000111d       0xe9 build/default/production/_ext/1080174469/Bowler_Helper.o
 .debug_str     0x00001206       0xc7 build/default/production/_ext/1080174469/AbstractPID.o
 .debug_str     0x000012cd       0xe2 build/default/production/_ext/1080174469/Bowler_Stack_Callback.o
 .debug_str     0x000013af      0x126 build/default/production/_ext/1080174469/FIFO.o
 .debug_str     0x000014d5       0xe2 build/default/production/_ext/1080174469/Bowler_RPC_Process.o
 .debug_str     0x000015b7       0xee build/default/production/_ext/1080174469/Bowler_Transport.o
 .debug_str     0x000016a5       0xeb build/default/production/_ext/1080174469/Debug.o
 .debug_str     0x00001790       0xe2 build/default/production/_ext/1080174469/Scheduler.o
 .debug_str     0x00001872       0xf3 build/default/production/_ext/1080174469/Bowler_Server.o
 .debug_str     0x00001965      0x109 build/default/production/_ext/1080174469/Namespace_bcs_core.o
 .debug_str     0x00001a6e       0xe2 build/default/production/_ext/1080174469/Namespace_bcs_pid.o
 .debug_str     0x00001b50       0xeb build/default/production/_ext/1080174469/Namespace_bcs_rpc.o
 .debug_str     0x00001c3b      0x187 build/default/production/_ext/263962707/Servo.o
 .debug_str     0x00001dc2       0xe2 build/default/production/_ext/263962707/SPIClient.o
 .debug_str     0x00001ea4      0x152 build/default/production/_ext/263962707/ForgeHeater.o
 .debug_str     0x00001ff6      0x18a build/default/production/_ext/263962707/AS5055.o
 .debug_str     0x00002180        0x0 build/default/production/_ext/1494288313/KosselKinematics.o
 .debug_str     0x00002180      0x16a build/default/production/_ext/1494288313/CartesianController.o
 .debug_str     0x000022ea       0xe2 build/default/production/_ext/1494288313/DeltaKinematics.o
 .debug_str     0x000023cc       0xe2 build/default/production/_ext/1494288313/delta.o
 .debug_str     0x000024ae       0xe2 build/default/production/_ext/519170017/MotionTest.o
 .debug_str     0x00002590       0xe2 build/default/production/_ext/519170017/Calibration.o
 .debug_str     0x00002672       0xf6 build/default/production/_ext/519170017/StepperSim.o
 .debug_str     0x00002768       0xf6 build/default/production/_ext/519170017/servoCalibration.o
 .debug_str     0x0000285e       0xf2 build/default/production/_ext/519170017/PID.o
 .debug_str     0x00002950       0xe2 build/default/production/_ext/2048476848/UpstreamPackets.o
 .debug_str     0x00002a32       0xe2 build/default/production/_ext/2048476848/Namespace_bcs_cartesian.o
 .debug_str     0x00002b14       0xfb build/default/production/_ext/2048476848/Callbacks.o
 .debug_str     0x00002c0f      0x13c build/default/production/_ext/1445274692/main.o
 .debug_str     0x00002d4b        0x0 /home/opt/microchip/xc32/v1.00/bin/../lib/gcc/pic32mx/4.5.1/libgcc.a(floatunsisf.o)
 .debug_str     0x00002d4b        0x0 /home/opt/microchip/xc32/v1.00/bin/../lib/gcc/pic32mx/4.5.1/../../../../pic32mx/lib/libc.a(default-bootstrap-exception-handler.o)
 .debug_str     0x00002d4b        0x0 /home/opt/microchip/xc32/v1.00/bin/../lib/gcc/pic32mx/4.5.1/../../../../pic32mx/lib/libc.a(default-on-reset.o)
 .debug_str     0x00002d4b        0x0 /home/opt/microchip/xc32/v1.00/bin/../lib/gcc/pic32mx/4.5.1/../../../../pic32mx/lib/libc.a(default-on-bootstrap.o)
 .debug_str     0x00002d4b        0x0 /home/opt/microchip/xc32/v1.00/bin/../lib/gcc/pic32mx/4.5.1/../../../../pic32mx/lib/libm.a(w_atan2f.o)
 .debug_str     0x00002d4b        0x0 /home/opt/microchip/xc32/v1.00/bin/../lib/gcc/pic32mx/4.5.1/../../../../pic32mx/lib/libm.a(w_sqrtf.o)
 .debug_str     0x00002d4b        0x0 /home/opt/microchip/xc32/v1.00/bin/../lib/gcc/pic32mx/4.5.1/../../../../pic32mx/lib/libm.a(s_lib_ver.o)
 .debug_str     0x00002d4b        0x0 /home/opt/microchip/xc32/v1.00/bin/../lib/gcc/pic32mx/4.5.1/../../../../pic32mx/lib/libm.a(cabs.o)
 .debug_str     0x00002d4b        0x0 /home/opt/microchip/xc32/v1.00/bin/../lib/gcc/pic32mx/4.5.1/../../../../pic32mx/lib/libm.a(support.o)
 .debug_str     0x00002d4b        0x0 /home/opt/microchip/xc32/v1.00/bin/../lib/gcc/pic32mx/4.5.1/../../../../pic32mx/lib/libm.a(w_ldexp.o)
 .debug_str     0x00002d4b        0x0 /home/opt/microchip/xc32/v1.00/bin/../lib/gcc/pic32mx/4.5.1/../../../../pic32mx/lib/libm.a(w_sqrt.o)
 .debug_str     0x00002d4b        0x0 /home/opt/microchip/xc32/v1.00/bin/../lib/gcc/pic32mx/4.5.1/../../../../pic32mx/lib/libc.a(errno.o)
 .debug_str     0x00002d4b        0x0 /home/opt/microchip/xc32/v1.00/bin/../lib/gcc/pic32mx/4.5.1/../../../../pic32mx/lib/libc.a(isinf.o)
 .debug_str     0x00002d4b        0x0 /home/opt/microchip/xc32/v1.00/bin/../lib/gcc/pic32mx/4.5.1/../../../../pic32mx/lib/libe.a(_unorddf2.o)
 .debug_str     0x00002d4b        0x0 /home/opt/microchip/xc32/v1.00/bin/../lib/gcc/pic32mx/4.5.1/../../../../pic32mx/lib/libmchp_peripheral_32MX440F128H.a(pcache.o)
 .debug_str     0x00002d4b        0x0 /home/opt/microchip/xc32/v1.00/bin/../lib/gcc/pic32mx/4.5.1/../../../../pic32mx/lib/libmchp_peripheral_32MX440F128H.a(int_enable_interrupts_lib.o)
 .debug_str     0x00002d4b        0x0 /home/opt/microchip/xc32/v1.00/bin/../lib/gcc/pic32mx/4.5.1/../../../../pic32mx/lib/libmchp_peripheral_32MX440F128H.a(int_disable_interrupts_lib.o)
 .debug_str     0x00002d4b        0x0 /home/opt/microchip/xc32/v1.00/bin/../lib/gcc/pic32mx/4.5.1/../../../../pic32mx/lib/libmchp_peripheral_32MX440F128H.a(int_restore_interrupts_lib.o)
 .debug_str     0x00002d4b        0x0 /home/opt/microchip/xc32/v1.00/bin/../lib/gcc/pic32mx/4.5.1/../../../../pic32mx/lib/libmchp_peripheral_32MX440F128H.a(int_enable_mv_int_lib.o)
 .debug_str     0x00002d4b        0x0 /home/opt/microchip/xc32/v1.00/bin/../lib/gcc/pic32mx/4.5.1/../../../../pic32mx/lib/libmchp_peripheral_32MX440F128H.a(int_tbl_lib.o)
 .debug_str     0x00002d4b        0x0 /home/opt/microchip/xc32/v1.00/bin/../lib/gcc/pic32mx/4.5.1/../../../../pic32mx/lib/libmchp_peripheral_32MX440F128H.a(spi_chn_getc_lib.o)
 .debug_str     0x00002d4b        0x0 /home/opt/microchip/xc32/v1.00/bin/../lib/gcc/pic32mx/4.5.1/../../../../pic32mx/lib/libmchp_peripheral_32MX440F128H.a(spi_chn_putc_lib.o)
 .debug_str     0x00002d4b        0x0 /home/opt/microchip/xc32/v1.00/bin/../lib/gcc/pic32mx/4.5.1/../../../../pic32mx/lib/libmchp_peripheral_32MX440F128H.a(spi_map_tbl_libp.o)
 .debug_str     0x00002d4b        0x0 /home/opt/microchip/xc32/v1.00/bin/../lib/gcc/pic32mx/4.5.1/../../../../pic32mx/lib/libmchp_peripheral_32MX440F128H.a(spi_open_spi2_lib_legacy.o)
 .debug_str     0x00002d4b        0x0 /home/opt/microchip/xc32/v1.00/bin/../lib/gcc/pic32mx/4.5.1/../../../../pic32mx/lib/libmchp_peripheral_32MX440F128H.a(spi_brg_tbl_lib_legacy.o)
 .debug_str     0x00002d4b        0x0 /home/opt/microchip/xc32/v1.00/bin/../lib/gcc/pic32mx/4.5.1/../../../../pic32mx/lib/libmchp_peripheral_32MX440F128H.a(nvm_erase_page_lib.o)
 .debug_str     0x00002d4b        0x0 /home/opt/microchip/xc32/v1.00/bin/../lib/gcc/pic32mx/4.5.1/../../../../pic32mx/lib/libmchp_peripheral_32MX440F128H.a(nvm_operation_lib.o)
 .debug_str     0x00002d4b        0x0 /home/opt/microchip/xc32/v1.00/bin/../lib/gcc/pic32mx/4.5.1/../../../../pic32mx/lib/libmchp_peripheral_32MX440F128H.a(nvm_write_word_lib.o)
 .debug_str     0x00002d4b        0x0 /home/opt/microchip/xc32/v1.00/bin/../lib/gcc/pic32mx/4.5.1/../../../../pic32mx/lib/libmchp_peripheral_32MX440F128H.a(port_set_pins_digital_out_lib.o)
 .debug_str     0x00002d4b        0x0 /home/opt/microchip/xc32/v1.00/bin/../lib/gcc/pic32mx/4.5.1/../../../../pic32mx/lib/libmchp_peripheral_32MX440F128H.a(port_clear_bits_lib.o)
 .debug_str     0x00002d4b        0x0 /home/opt/microchip/xc32/v1.00/bin/../lib/gcc/pic32mx/4.5.1/../../../../pic32mx/lib/libmchp_peripheral_32MX440F128H.a(port_set_bits_lib.o)
 .debug_str     0x00002d4b        0x0 /home/opt/microchip/xc32/v1.00/bin/../lib/gcc/pic32mx/4.5.1/../../../../pic32mx/lib/libmchp_peripheral_32MX440F128H.a(_ports_tbl_libp.o)
 .debug_str     0x00002d4b        0x0 /home/opt/microchip/xc32/v1.00/bin/../lib/gcc/pic32mx/4.5.1/../../../../pic32mx/lib/libmchp_peripheral_32MX440F128H.a(uart_lib.o)

.debug_loc      0x00000000       0x5d
 *(.debug_loc)
 .debug_loc     0x00000000       0x5d /home/opt/microchip/xc32/v1.00/bin/../lib/gcc/pic32mx/4.5.1/libgcc.a(floatunsisf.o)

.debug_macinfo
 *(.debug_macinfo)

.debug_weaknames
 *(.debug_weaknames)

.debug_funcnames
 *(.debug_funcnames)

.debug_typenames
 *(.debug_typenames)

.debug_varnames
 *(.debug_varnames)

.debug_pubtypes
                0x00000000     0x3ac2
 *(.debug_pubtypes)
 .debug_pubtypes
                0x00000000      0x104 build/default/production/_ext/1487882678/usb_descriptors.o
 .debug_pubtypes
                0x00000104      0x236 build/default/production/_ext/1487882678/usb_function_cdc.o
 .debug_pubtypes
                0x0000033a      0x1c3 build/default/production/_ext/1487882678/usb_fifo.o
 .debug_pubtypes
                0x000004fd      0x167 build/default/production/_ext/1487882678/usb_callback.o
 .debug_pubtypes
                0x00000664       0xbd build/default/production/_ext/1487882678/usb_interrupt.o
 .debug_pubtypes
                0x00000721      0x287 build/default/production/_ext/1487882678/usb_device.o
 .debug_pubtypes
                0x000009a8       0xd0 build/default/production/_ext/2118813141/Delay.o
 .debug_pubtypes
                0x00000a78      0x109 build/default/production/_ext/2118813141/FlashStorage.o
 .debug_pubtypes
                0x00000b81      0x19d build/default/production/_ext/2118813141/HAL_P32.o
 .debug_pubtypes
                0x00000d1e       0xc6 build/default/production/_ext/2118813141/LED.o
 .debug_pubtypes
                0x00000de4       0xc7 build/default/production/_ext/2118813141/Tick.o
 .debug_pubtypes
                0x00000eab      0x175 build/default/production/_ext/2118813141/Bowler_UART_HAL.o
 .debug_pubtypes
                0x00001020       0xe9 build/default/production/_ext/2118813141/UART.o
 .debug_pubtypes
                0x00001109      0x128 build/default/production/_ext/2118813141/ADC.o
 .debug_pubtypes
                0x00001231       0xe2 build/default/production/_ext/2118813141/Bowler_USB_HAL.o
 .debug_pubtypes
                0x00001313      0x192 build/default/production/_ext/1080174469/Bowler_Helper.o
 .debug_pubtypes
                0x000014a5      0x160 build/default/production/_ext/1080174469/AbstractPID.o
 .debug_pubtypes
                0x00001605       0xbd build/default/production/_ext/1080174469/Bowler_Stack_Callback.o
 .debug_pubtypes
                0x000016c2      0x1b8 build/default/production/_ext/1080174469/FIFO.o
 .debug_pubtypes
                0x0000187a      0x1c0 build/default/production/_ext/1080174469/Bowler_RPC_Process.o
 .debug_pubtypes
                0x00001a3a      0x18c build/default/production/_ext/1080174469/Bowler_Transport.o
 .debug_pubtypes
                0x00001bc6      0x16f build/default/production/_ext/1080174469/Debug.o
 .debug_pubtypes
                0x00001d35       0xdd build/default/production/_ext/1080174469/Scheduler.o
 .debug_pubtypes
                0x00001e12      0x1e8 build/default/production/_ext/1080174469/Bowler_Server.o
 .debug_pubtypes
                0x00001ffa      0x1b0 build/default/production/_ext/1080174469/Namespace_bcs_core.o
 .debug_pubtypes
                0x000021aa      0x19f build/default/production/_ext/1080174469/Namespace_bcs_pid.o
 .debug_pubtypes
                0x00002349      0x1cd build/default/production/_ext/1080174469/Namespace_bcs_rpc.o
 .debug_pubtypes
                0x00002516      0x168 build/default/production/_ext/263962707/Servo.o
 .debug_pubtypes
                0x0000267e       0xc6 build/default/production/_ext/263962707/SPIClient.o
 .debug_pubtypes
                0x00002744      0x102 build/default/production/_ext/263962707/ForgeHeater.o
 .debug_pubtypes
                0x00002846      0x278 build/default/production/_ext/263962707/AS5055.o
 .debug_pubtypes
                0x00002abe       0x3c build/default/production/_ext/1494288313/KosselKinematics.o
 .debug_pubtypes
                0x00002afa      0x201 build/default/production/_ext/1494288313/CartesianController.o
 .debug_pubtypes
                0x00002cfb       0xbd build/default/production/_ext/1494288313/DeltaKinematics.o
 .debug_pubtypes
                0x00002db8       0xbd build/default/production/_ext/1494288313/delta.o
 .debug_pubtypes
                0x00002e75       0xbd build/default/production/_ext/519170017/MotionTest.o
 .debug_pubtypes
                0x00002f32       0xbd build/default/production/_ext/519170017/Calibration.o
 .debug_pubtypes
                0x00002fef       0xe1 build/default/production/_ext/519170017/StepperSim.o
 .debug_pubtypes
                0x000030d0      0x13c build/default/production/_ext/519170017/servoCalibration.o
 .debug_pubtypes
                0x0000320c      0x1ea build/default/production/_ext/519170017/PID.o
 .debug_pubtypes
                0x000033f6      0x157 build/default/production/_ext/2048476848/UpstreamPackets.o
 .debug_pubtypes
                0x0000354d      0x1c0 build/default/production/_ext/2048476848/Namespace_bcs_cartesian.o
 .debug_pubtypes
                0x0000370d      0x150 build/default/production/_ext/2048476848/Callbacks.o
 .debug_pubtypes
                0x0000385d      0x231 build/default/production/_ext/1445274692/main.o
 .debug_pubtypes
                0x00003a8e       0x34 /home/opt/microchip/xc32/v1.00/bin/../lib/gcc/pic32mx/4.5.1/libgcc.a(floatunsisf.o)

.debug_ranges   0x00000000      0x308
 *(.debug_ranges)
 .debug_ranges  0x00000000       0x18 build/default/production/_ext/1487882678/usb_device.o
 .debug_ranges  0x00000018       0x18 build/default/production/_ext/1080174469/Bowler_Transport.o
 .debug_ranges  0x00000030       0x10 /home/opt/microchip/xc32/v1.00/bin/../lib/gcc/pic32mx/4.5.1/../../../../pic32mx/lib/libc.a(default-bootstrap-exception-handler.o)
 .debug_ranges  0x00000040       0x10 /home/opt/microchip/xc32/v1.00/bin/../lib/gcc/pic32mx/4.5.1/../../../../pic32mx/lib/libc.a(default-on-reset.o)
 .debug_ranges  0x00000050       0x10 /home/opt/microchip/xc32/v1.00/bin/../lib/gcc/pic32mx/4.5.1/../../../../pic32mx/lib/libc.a(default-on-bootstrap.o)
 .debug_ranges  0x00000060       0x10 /home/opt/microchip/xc32/v1.00/bin/../lib/gcc/pic32mx/4.5.1/../../../../pic32mx/lib/libm.a(w_atan2f.o)
 .debug_ranges  0x00000070       0x10 /home/opt/microchip/xc32/v1.00/bin/../lib/gcc/pic32mx/4.5.1/../../../../pic32mx/lib/libm.a(w_sqrtf.o)
 .debug_ranges  0x00000080       0x20 /home/opt/microchip/xc32/v1.00/bin/../lib/gcc/pic32mx/4.5.1/../../../../pic32mx/lib/libm.a(cabs.o)
 .debug_ranges  0x000000a0       0x68 /home/opt/microchip/xc32/v1.00/bin/../lib/gcc/pic32mx/4.5.1/../../../../pic32mx/lib/libm.a(support.o)
 .debug_ranges  0x00000108       0x10 /home/opt/microchip/xc32/v1.00/bin/../lib/gcc/pic32mx/4.5.1/../../../../pic32mx/lib/libm.a(w_ldexp.o)
 .debug_ranges  0x00000118       0x10 /home/opt/microchip/xc32/v1.00/bin/../lib/gcc/pic32mx/4.5.1/../../../../pic32mx/lib/libm.a(w_sqrt.o)
 .debug_ranges  0x00000128       0x38 /home/opt/microchip/xc32/v1.00/bin/../lib/gcc/pic32mx/4.5.1/../../../../pic32mx/lib/libc.a(isinf.o)
 .debug_ranges  0x00000160       0x10 /home/opt/microchip/xc32/v1.00/bin/../lib/gcc/pic32mx/4.5.1/../../../../pic32mx/lib/libe.a(_unorddf2.o)
 .debug_ranges  0x00000170       0x18 /home/opt/microchip/xc32/v1.00/bin/../lib/gcc/pic32mx/4.5.1/../../../../pic32mx/lib/libmchp_peripheral_32MX440F128H.a(pcache.o)
 .debug_ranges  0x00000188       0x10 /home/opt/microchip/xc32/v1.00/bin/../lib/gcc/pic32mx/4.5.1/../../../../pic32mx/lib/libmchp_peripheral_32MX440F128H.a(int_enable_interrupts_lib.o)
 .debug_ranges  0x00000198       0x10 /home/opt/microchip/xc32/v1.00/bin/../lib/gcc/pic32mx/4.5.1/../../../../pic32mx/lib/libmchp_peripheral_32MX440F128H.a(int_disable_interrupts_lib.o)
 .debug_ranges  0x000001a8       0x10 /home/opt/microchip/xc32/v1.00/bin/../lib/gcc/pic32mx/4.5.1/../../../../pic32mx/lib/libmchp_peripheral_32MX440F128H.a(int_restore_interrupts_lib.o)
 .debug_ranges  0x000001b8       0x10 /home/opt/microchip/xc32/v1.00/bin/../lib/gcc/pic32mx/4.5.1/../../../../pic32mx/lib/libmchp_peripheral_32MX440F128H.a(int_enable_mv_int_lib.o)
 .debug_ranges  0x000001c8       0x50 /home/opt/microchip/xc32/v1.00/bin/../lib/gcc/pic32mx/4.5.1/../../../../pic32mx/lib/libmchp_peripheral_32MX440F128H.a(int_tbl_lib.o)
 .debug_ranges  0x00000218       0x18 /home/opt/microchip/xc32/v1.00/bin/../lib/gcc/pic32mx/4.5.1/../../../../pic32mx/lib/libmchp_peripheral_32MX440F128H.a(spi_chn_getc_lib.o)
 .debug_ranges  0x00000230       0x20 /home/opt/microchip/xc32/v1.00/bin/../lib/gcc/pic32mx/4.5.1/../../../../pic32mx/lib/libmchp_peripheral_32MX440F128H.a(spi_chn_putc_lib.o)
 .debug_ranges  0x00000250       0x10 /home/opt/microchip/xc32/v1.00/bin/../lib/gcc/pic32mx/4.5.1/../../../../pic32mx/lib/libmchp_peripheral_32MX440F128H.a(spi_open_spi2_lib_legacy.o)
 .debug_ranges  0x00000260       0x10 /home/opt/microchip/xc32/v1.00/bin/../lib/gcc/pic32mx/4.5.1/../../../../pic32mx/lib/libmchp_peripheral_32MX440F128H.a(nvm_erase_page_lib.o)
 .debug_ranges  0x00000270       0x10 /home/opt/microchip/xc32/v1.00/bin/../lib/gcc/pic32mx/4.5.1/../../../../pic32mx/lib/libmchp_peripheral_32MX440F128H.a(nvm_operation_lib.o)
 .debug_ranges  0x00000280       0x10 /home/opt/microchip/xc32/v1.00/bin/../lib/gcc/pic32mx/4.5.1/../../../../pic32mx/lib/libmchp_peripheral_32MX440F128H.a(nvm_write_word_lib.o)
 .debug_ranges  0x00000290       0x10 /home/opt/microchip/xc32/v1.00/bin/../lib/gcc/pic32mx/4.5.1/../../../../pic32mx/lib/libmchp_peripheral_32MX440F128H.a(port_set_pins_digital_out_lib.o)
 .debug_ranges  0x000002a0       0x10 /home/opt/microchip/xc32/v1.00/bin/../lib/gcc/pic32mx/4.5.1/../../../../pic32mx/lib/libmchp_peripheral_32MX440F128H.a(port_clear_bits_lib.o)
 .debug_ranges  0x000002b0       0x10 /home/opt/microchip/xc32/v1.00/bin/../lib/gcc/pic32mx/4.5.1/../../../../pic32mx/lib/libmchp_peripheral_32MX440F128H.a(port_set_bits_lib.o)
 .debug_ranges  0x000002c0       0x48 /home/opt/microchip/xc32/v1.00/bin/../lib/gcc/pic32mx/4.5.1/../../../../pic32mx/lib/libmchp_peripheral_32MX440F128H.a(uart_lib.o)

.gnu.attributes
                0x00000000       0x10
 *(.gnu.attributes)
 .gnu.attributes
                0x00000000       0x10 build/default/production/_ext/1487882678/usb_descriptors.o
 .gnu.attributes
                0x00000010       0x10 build/default/production/_ext/1487882678/usb_function_cdc.o
 .gnu.attributes
                0x00000020       0x10 build/default/production/_ext/1487882678/usb_fifo.o
 .gnu.attributes
                0x00000030       0x10 build/default/production/_ext/1487882678/usb_callback.o
 .gnu.attributes
                0x00000040       0x10 build/default/production/_ext/1487882678/usb_interrupt.o
 .gnu.attributes
                0x00000050       0x10 build/default/production/_ext/1487882678/usb_device.o
 .gnu.attributes
                0x00000060       0x10 build/default/production/_ext/2118813141/Delay.o
 .gnu.attributes
                0x00000070       0x10 build/default/production/_ext/2118813141/FlashStorage.o
 .gnu.attributes
                0x00000080       0x10 build/default/production/_ext/2118813141/HAL_P32.o
 .gnu.attributes
                0x00000090       0x10 build/default/production/_ext/2118813141/LED.o
 .gnu.attributes
                0x000000a0       0x10 build/default/production/_ext/2118813141/Tick.o
 .gnu.attributes
                0x000000b0       0x10 build/default/production/_ext/2118813141/Bowler_UART_HAL.o
 .gnu.attributes
                0x000000c0       0x10 build/default/production/_ext/2118813141/UART.o
 .gnu.attributes
                0x000000d0       0x10 build/default/production/_ext/2118813141/ADC.o
 .gnu.attributes
                0x000000e0       0x10 build/default/production/_ext/2118813141/Bowler_USB_HAL.o
 .gnu.attributes
                0x000000f0       0x10 build/default/production/_ext/1080174469/Bowler_Helper.o
 .gnu.attributes
                0x00000100       0x10 build/default/production/_ext/1080174469/AbstractPID.o
 .gnu.attributes
                0x00000110       0x10 build/default/production/_ext/1080174469/Bowler_Stack_Callback.o
 .gnu.attributes
                0x00000120       0x10 build/default/production/_ext/1080174469/FIFO.o
 .gnu.attributes
                0x00000130       0x10 build/default/production/_ext/1080174469/Bowler_RPC_Process.o
 .gnu.attributes
                0x00000140       0x10 build/default/production/_ext/1080174469/Bowler_Transport.o
 .gnu.attributes
                0x00000150       0x10 build/default/production/_ext/1080174469/Debug.o
 .gnu.attributes
                0x00000160       0x10 build/default/production/_ext/1080174469/Scheduler.o
 .gnu.attributes
                0x00000170       0x10 build/default/production/_ext/1080174469/Bowler_Server.o
 .gnu.attributes
                0x00000180       0x10 build/default/production/_ext/1080174469/Namespace_bcs_core.o
 .gnu.attributes
                0x00000190       0x10 build/default/production/_ext/1080174469/Namespace_bcs_pid.o
 .gnu.attributes
                0x000001a0       0x10 build/default/production/_ext/1080174469/Namespace_bcs_rpc.o
 .gnu.attributes
                0x000001b0       0x10 build/default/production/_ext/263962707/Servo.o
 .gnu.attributes
                0x000001c0       0x10 build/default/production/_ext/263962707/SPIClient.o
 .gnu.attributes
                0x000001d0       0x10 build/default/production/_ext/263962707/ForgeHeater.o
 .gnu.attributes
                0x000001e0       0x10 build/default/production/_ext/263962707/AS5055.o
 .gnu.attributes
                0x000001f0       0x10 build/default/production/_ext/1494288313/KosselKinematics.o
 .gnu.attributes
                0x00000200       0x10 build/default/production/_ext/1494288313/CartesianController.o
 .gnu.attributes
                0x00000210       0x10 build/default/production/_ext/1494288313/DeltaKinematics.o
 .gnu.attributes
                0x00000220       0x10 build/default/production/_ext/1494288313/delta.o
 .gnu.attributes
                0x00000230       0x10 build/default/production/_ext/519170017/MotionTest.o
 .gnu.attributes
                0x00000240       0x10 build/default/production/_ext/519170017/Calibration.o
 .gnu.attributes
                0x00000250       0x10 build/default/production/_ext/519170017/StepperSim.o
 .gnu.attributes
                0x00000260       0x10 build/default/production/_ext/519170017/servoCalibration.o
 .gnu.attributes
                0x00000270       0x10 build/default/production/_ext/519170017/PID.o
 .gnu.attributes
                0x00000280       0x10 build/default/production/_ext/2048476848/UpstreamPackets.o
 .gnu.attributes
                0x00000290       0x10 build/default/production/_ext/2048476848/Namespace_bcs_cartesian.o
 .gnu.attributes
                0x000002a0       0x10 build/default/production/_ext/2048476848/Callbacks.o
 .gnu.attributes
                0x000002b0       0x10 build/default/production/_ext/1445274692/main.o
 .gnu.attributes
                0x000002c0       0x10 /home/opt/microchip/xc32/v1.00/bin/../lib/gcc/pic32mx/4.5.1/libgcc.a(floatunsisf.o)
 .gnu.attributes
                0x000002d0       0x10 /home/opt/microchip/xc32/v1.00/bin/../lib/gcc/pic32mx/4.5.1/../../../../pic32mx/lib/libc.a(default-bootstrap-exception-handler.o)
 .gnu.attributes
                0x000002e0       0x10 /home/opt/microchip/xc32/v1.00/bin/../lib/gcc/pic32mx/4.5.1/../../../../pic32mx/lib/libc.a(default-on-reset.o)
 .gnu.attributes
                0x000002f0       0x10 /home/opt/microchip/xc32/v1.00/bin/../lib/gcc/pic32mx/4.5.1/../../../../pic32mx/lib/libc.a(default-on-bootstrap.o)
 .gnu.attributes
                0x00000300       0x10 /home/opt/microchip/xc32/v1.00/bin/../lib/gcc/pic32mx/4.5.1/../../../../pic32mx/lib/libm.a(w_atan2f.o)
 .gnu.attributes
                0x00000310       0x10 /home/opt/microchip/xc32/v1.00/bin/../lib/gcc/pic32mx/4.5.1/../../../../pic32mx/lib/libm.a(w_sqrtf.o)
 .gnu.attributes
                0x00000320       0x10 /home/opt/microchip/xc32/v1.00/bin/../lib/gcc/pic32mx/4.5.1/../../../../pic32mx/lib/libm.a(s_lib_ver.o)
 .gnu.attributes
                0x00000330       0x10 /home/opt/microchip/xc32/v1.00/bin/../lib/gcc/pic32mx/4.5.1/../../../../pic32mx/lib/libm.a(cabs.o)
 .gnu.attributes
                0x00000340       0x10 /home/opt/microchip/xc32/v1.00/bin/../lib/gcc/pic32mx/4.5.1/../../../../pic32mx/lib/libm.a(support.o)
 .gnu.attributes
                0x00000350       0x10 /home/opt/microchip/xc32/v1.00/bin/../lib/gcc/pic32mx/4.5.1/../../../../pic32mx/lib/libm.a(w_ldexp.o)
 .gnu.attributes
                0x00000360       0x10 /home/opt/microchip/xc32/v1.00/bin/../lib/gcc/pic32mx/4.5.1/../../../../pic32mx/lib/libm.a(w_sqrt.o)
 .gnu.attributes
                0x00000370       0x10 /home/opt/microchip/xc32/v1.00/bin/../lib/gcc/pic32mx/4.5.1/../../../../pic32mx/lib/libc.a(errno.o)
 .gnu.attributes
                0x00000380       0x10 /home/opt/microchip/xc32/v1.00/bin/../lib/gcc/pic32mx/4.5.1/../../../../pic32mx/lib/libc.a(isinf.o)
 .gnu.attributes
                0x00000390       0x10 /home/opt/microchip/xc32/v1.00/bin/../lib/gcc/pic32mx/4.5.1/../../../../pic32mx/lib/libe.a(_unorddf2.o)
 .gnu.attributes
                0x000003a0       0x10 /home/opt/microchip/xc32/v1.00/bin/../lib/gcc/pic32mx/4.5.1/../../../../pic32mx/lib/libmchp_peripheral_32MX440F128H.a(pcache.o)
 .gnu.attributes
                0x000003b0       0x10 /home/opt/microchip/xc32/v1.00/bin/../lib/gcc/pic32mx/4.5.1/../../../../pic32mx/lib/libmchp_peripheral_32MX440F128H.a(int_enable_interrupts_lib.o)
 .gnu.attributes
                0x000003c0       0x10 /home/opt/microchip/xc32/v1.00/bin/../lib/gcc/pic32mx/4.5.1/../../../../pic32mx/lib/libmchp_peripheral_32MX440F128H.a(int_disable_interrupts_lib.o)
 .gnu.attributes
                0x000003d0       0x10 /home/opt/microchip/xc32/v1.00/bin/../lib/gcc/pic32mx/4.5.1/../../../../pic32mx/lib/libmchp_peripheral_32MX440F128H.a(int_restore_interrupts_lib.o)
 .gnu.attributes
                0x000003e0       0x10 /home/opt/microchip/xc32/v1.00/bin/../lib/gcc/pic32mx/4.5.1/../../../../pic32mx/lib/libmchp_peripheral_32MX440F128H.a(int_enable_mv_int_lib.o)
 .gnu.attributes
                0x000003f0       0x10 /home/opt/microchip/xc32/v1.00/bin/../lib/gcc/pic32mx/4.5.1/../../../../pic32mx/lib/libmchp_peripheral_32MX440F128H.a(int_tbl_lib.o)
 .gnu.attributes
                0x00000400       0x10 /home/opt/microchip/xc32/v1.00/bin/../lib/gcc/pic32mx/4.5.1/../../../../pic32mx/lib/libmchp_peripheral_32MX440F128H.a(spi_chn_getc_lib.o)
 .gnu.attributes
                0x00000410       0x10 /home/opt/microchip/xc32/v1.00/bin/../lib/gcc/pic32mx/4.5.1/../../../../pic32mx/lib/libmchp_peripheral_32MX440F128H.a(spi_chn_putc_lib.o)
 .gnu.attributes
                0x00000420       0x10 /home/opt/microchip/xc32/v1.00/bin/../lib/gcc/pic32mx/4.5.1/../../../../pic32mx/lib/libmchp_peripheral_32MX440F128H.a(spi_map_tbl_libp.o)
 .gnu.attributes
                0x00000430       0x10 /home/opt/microchip/xc32/v1.00/bin/../lib/gcc/pic32mx/4.5.1/../../../../pic32mx/lib/libmchp_peripheral_32MX440F128H.a(spi_open_spi2_lib_legacy.o)
 .gnu.attributes
                0x00000440       0x10 /home/opt/microchip/xc32/v1.00/bin/../lib/gcc/pic32mx/4.5.1/../../../../pic32mx/lib/libmchp_peripheral_32MX440F128H.a(spi_brg_tbl_lib_legacy.o)
 .gnu.attributes
                0x00000450       0x10 /home/opt/microchip/xc32/v1.00/bin/../lib/gcc/pic32mx/4.5.1/../../../../pic32mx/lib/libmchp_peripheral_32MX440F128H.a(nvm_erase_page_lib.o)
 .gnu.attributes
                0x00000460       0x10 /home/opt/microchip/xc32/v1.00/bin/../lib/gcc/pic32mx/4.5.1/../../../../pic32mx/lib/libmchp_peripheral_32MX440F128H.a(nvm_operation_lib.o)
 .gnu.attributes
                0x00000470       0x10 /home/opt/microchip/xc32/v1.00/bin/../lib/gcc/pic32mx/4.5.1/../../../../pic32mx/lib/libmchp_peripheral_32MX440F128H.a(nvm_write_word_lib.o)
 .gnu.attributes
                0x00000480       0x10 /home/opt/microchip/xc32/v1.00/bin/../lib/gcc/pic32mx/4.5.1/../../../../pic32mx/lib/libmchp_peripheral_32MX440F128H.a(port_set_pins_digital_out_lib.o)
 .gnu.attributes
                0x00000490       0x10 /home/opt/microchip/xc32/v1.00/bin/../lib/gcc/pic32mx/4.5.1/../../../../pic32mx/lib/libmchp_peripheral_32MX440F128H.a(port_clear_bits_lib.o)
 .gnu.attributes
                0x000004a0       0x10 /home/opt/microchip/xc32/v1.00/bin/../lib/gcc/pic32mx/4.5.1/../../../../pic32mx/lib/libmchp_peripheral_32MX440F128H.a(port_set_bits_lib.o)
 .gnu.attributes
                0x000004b0       0x10 /home/opt/microchip/xc32/v1.00/bin/../lib/gcc/pic32mx/4.5.1/../../../../pic32mx/lib/libmchp_peripheral_32MX440F128H.a(_ports_tbl_libp.o)
 .gnu.attributes
                0x000004c0       0x10 /home/opt/microchip/xc32/v1.00/bin/../lib/gcc/pic32mx/4.5.1/../../../../pic32mx/lib/libmchp_peripheral_32MX440F128H.a(uart_lib.o)
OUTPUT(dist/default/production/ServoPrinterController.X.production.elf elf32-tradlittlemips)
LOAD stack
LOAD data_init

.stack          0xa0004ea8      0x400
 .stack         0xa0004ea8      0x400 stack

.bss            0xa00035d4     0x12c4
 .bss           0xa00035d4      0x670 build/default/production/_ext/2118813141/HAL_P32.o
 .bss           0xa0003c44      0x5ac build/default/production/_ext/519170017/PID.o
 .bss           0xa00041f0      0x484 build/default/production/_ext/1487882678/usb_fifo.o
 .bss           0xa0004674      0x224 build/default/production/_ext/1445274692/main.o

.data           0xa0000268      0x178
 .data          0xa0000268      0x178 build/default/production/_ext/1080174469/Namespace_bcs_pid.o

.bss            0xa0004898      0x270
 .bss           0xa0004898      0x14c build/default/production/_ext/2048476848/UpstreamPackets.o
 .bss           0xa00049e4      0x124 build/default/production/_ext/2118813141/Bowler_UART_HAL.o

.data           0xa0004b08      0x204
 .data          0xa0004b08      0x104 build/default/production/_ext/1487882678/usb_descriptors.o
                0xa0004b08                device_dsc
                0xa0004b1c                configDescriptor1
                0xa0004b60                sd001
                0xa0004b94                sd002
                0xa0004bc8                sd003
                0xa0004bfc                USB_SD_Ptr
 .data          0xa0004c0c      0x100 /home/opt/microchip/xc32/v1.00/bin/../lib/gcc/pic32mx/4.5.1/../../../../pic32mx/lib/libm.a(fparc32.o)

.bss            0xa0004d0c       0x80
 .bss           0xa0004d0c       0x80 build/default/production/_ext/519170017/servoCalibration.o

.data           0xa0004d8c       0xfc
 .data          0xa0004d8c       0x48 build/default/production/_ext/1080174469/Namespace_bcs_core.o
 .data          0xa0004dd4       0x48 build/default/production/_ext/1080174469/Namespace_bcs_rpc.o
 .data          0xa0004e1c       0x48 build/default/production/_ext/2048476848/Namespace_bcs_cartesian.o
 .data          0xa0004e64       0x24 /home/opt/microchip/xc32/v1.00/bin/../lib/gcc/pic32mx/4.5.1/../../../../pic32mx/lib/libm.a(sincof32.o)
                0xa0004e64                _sincof
                0xa0004e74                _coscof

.bss            0xa00003e0       0x10
 .bss           0xa00003e0       0x10 build/default/production/_ext/263962707/ForgeHeater.o
                0xa00003e0                heaterDutty

.data.math_errhandling_flag
                0xa00003f0        0x4
 .data.math_errhandling_flag
                0xa00003f0        0x4 /home/opt/microchip/xc32/v1.00/bin/../lib/gcc/pic32mx/4.5.1/../../../../pic32mx/lib/libm.a(s_lib_ver.o)
                0xa00003f0                math_errhandling

.mdebug.abi32%z1
                0x00000000        0x0
 .mdebug.abi32  0x00000000        0x0 /home/opt/microchip/xc32/v1.00/bin/../lib/gcc/pic32mx/4.5.1/../../../../pic32mx/lib/libmchp_peripheral_32MX440F128H.a(uart_lib.o)

.bss%z2         0x00000000        0x0
 .bss           0x00000000        0x0 /home/opt/microchip/xc32/v1.00/bin/../lib/gcc/pic32mx/4.5.1/../../../../pic32mx/lib/libmchp_peripheral_32MX440F128H.a(uart_lib.o)

.data%z3        0x00000000        0x0
 .data          0x00000000        0x0 /home/opt/microchip/xc32/v1.00/bin/../lib/gcc/pic32mx/4.5.1/../../../../pic32mx/lib/libmchp_peripheral_32MX440F128H.a(uart_lib.o)

.mdebug.abi32%z4
                0x00000000        0x0
 .mdebug.abi32  0x00000000        0x0 /home/opt/microchip/xc32/v1.00/bin/../lib/gcc/pic32mx/4.5.1/../../../../pic32mx/lib/libmchp_peripheral_32MX440F128H.a(_ports_tbl_libp.o)

.bss%z5         0x00000000        0x0
 .bss           0x00000000        0x0 /home/opt/microchip/xc32/v1.00/bin/../lib/gcc/pic32mx/4.5.1/../../../../pic32mx/lib/libmchp_peripheral_32MX440F128H.a(_ports_tbl_libp.o)

.data%z6        0x00000000        0x0
 .data          0x00000000        0x0 /home/opt/microchip/xc32/v1.00/bin/../lib/gcc/pic32mx/4.5.1/../../../../pic32mx/lib/libmchp_peripheral_32MX440F128H.a(_ports_tbl_libp.o)

.mdebug.abi32%z7
                0x00000000        0x0
 .mdebug.abi32  0x00000000        0x0 /home/opt/microchip/xc32/v1.00/bin/../lib/gcc/pic32mx/4.5.1/../../../../pic32mx/lib/libmchp_peripheral_32MX440F128H.a(port_set_bits_lib.o)

.bss%z8         0x00000000        0x0
 .bss           0x00000000        0x0 /home/opt/microchip/xc32/v1.00/bin/../lib/gcc/pic32mx/4.5.1/../../../../pic32mx/lib/libmchp_peripheral_32MX440F128H.a(port_set_bits_lib.o)

.data%z9        0x00000000        0x0
 .data          0x00000000        0x0 /home/opt/microchip/xc32/v1.00/bin/../lib/gcc/pic32mx/4.5.1/../../../../pic32mx/lib/libmchp_peripheral_32MX440F128H.a(port_set_bits_lib.o)

.mdebug.abi32%z10
                0x00000000        0x0
 .mdebug.abi32  0x00000000        0x0 /home/opt/microchip/xc32/v1.00/bin/../lib/gcc/pic32mx/4.5.1/../../../../pic32mx/lib/libmchp_peripheral_32MX440F128H.a(port_clear_bits_lib.o)

.bss%z11        0x00000000        0x0
 .bss           0x00000000        0x0 /home/opt/microchip/xc32/v1.00/bin/../lib/gcc/pic32mx/4.5.1/../../../../pic32mx/lib/libmchp_peripheral_32MX440F128H.a(port_clear_bits_lib.o)

.data%z12       0x00000000        0x0
 .data          0x00000000        0x0 /home/opt/microchip/xc32/v1.00/bin/../lib/gcc/pic32mx/4.5.1/../../../../pic32mx/lib/libmchp_peripheral_32MX440F128H.a(port_clear_bits_lib.o)

.mdebug.abi32%z13
                0x00000000        0x0
 .mdebug.abi32  0x00000000        0x0 /home/opt/microchip/xc32/v1.00/bin/../lib/gcc/pic32mx/4.5.1/../../../../pic32mx/lib/libmchp_peripheral_32MX440F128H.a(port_set_pins_digital_out_lib.o)

.bss%z14        0x00000000        0x0
 .bss           0x00000000        0x0 /home/opt/microchip/xc32/v1.00/bin/../lib/gcc/pic32mx/4.5.1/../../../../pic32mx/lib/libmchp_peripheral_32MX440F128H.a(port_set_pins_digital_out_lib.o)

.data%z15       0x00000000        0x0
 .data          0x00000000        0x0 /home/opt/microchip/xc32/v1.00/bin/../lib/gcc/pic32mx/4.5.1/../../../../pic32mx/lib/libmchp_peripheral_32MX440F128H.a(port_set_pins_digital_out_lib.o)

.mdebug.abi32%z16
                0x00000000        0x0
 .mdebug.abi32  0x00000000        0x0 /home/opt/microchip/xc32/v1.00/bin/../lib/gcc/pic32mx/4.5.1/../../../../pic32mx/lib/libmchp_peripheral_32MX440F128H.a(nvm_write_word_lib.o)

.bss%z17        0x00000000        0x0
 .bss           0x00000000        0x0 /home/opt/microchip/xc32/v1.00/bin/../lib/gcc/pic32mx/4.5.1/../../../../pic32mx/lib/libmchp_peripheral_32MX440F128H.a(nvm_write_word_lib.o)

.data%z18       0x00000000        0x0
 .data          0x00000000        0x0 /home/opt/microchip/xc32/v1.00/bin/../lib/gcc/pic32mx/4.5.1/../../../../pic32mx/lib/libmchp_peripheral_32MX440F128H.a(nvm_write_word_lib.o)

.mdebug.abi32%z19
                0x00000000        0x0
 .mdebug.abi32  0x00000000        0x0 /home/opt/microchip/xc32/v1.00/bin/../lib/gcc/pic32mx/4.5.1/../../../../pic32mx/lib/libmchp_peripheral_32MX440F128H.a(nvm_operation_lib.o)

.bss%z20        0x00000000        0x0
 .bss           0x00000000        0x0 /home/opt/microchip/xc32/v1.00/bin/../lib/gcc/pic32mx/4.5.1/../../../../pic32mx/lib/libmchp_peripheral_32MX440F128H.a(nvm_operation_lib.o)

.data%z21       0x00000000        0x0
 .data          0x00000000        0x0 /home/opt/microchip/xc32/v1.00/bin/../lib/gcc/pic32mx/4.5.1/../../../../pic32mx/lib/libmchp_peripheral_32MX440F128H.a(nvm_operation_lib.o)

.mdebug.abi32%z22
                0x00000000        0x0
 .mdebug.abi32  0x00000000        0x0 /home/opt/microchip/xc32/v1.00/bin/../lib/gcc/pic32mx/4.5.1/../../../../pic32mx/lib/libmchp_peripheral_32MX440F128H.a(nvm_erase_page_lib.o)

.bss%z23        0x00000000        0x0
 .bss           0x00000000        0x0 /home/opt/microchip/xc32/v1.00/bin/../lib/gcc/pic32mx/4.5.1/../../../../pic32mx/lib/libmchp_peripheral_32MX440F128H.a(nvm_erase_page_lib.o)

.data%z24       0x00000000        0x0
 .data          0x00000000        0x0 /home/opt/microchip/xc32/v1.00/bin/../lib/gcc/pic32mx/4.5.1/../../../../pic32mx/lib/libmchp_peripheral_32MX440F128H.a(nvm_erase_page_lib.o)

.mdebug.abi32%z25
                0x00000000        0x0
 .mdebug.abi32  0x00000000        0x0 /home/opt/microchip/xc32/v1.00/bin/../lib/gcc/pic32mx/4.5.1/../../../../pic32mx/lib/libmchp_peripheral_32MX440F128H.a(spi_brg_tbl_lib_legacy.o)

.bss%z26        0x00000000        0x0
 .bss           0x00000000        0x0 /home/opt/microchip/xc32/v1.00/bin/../lib/gcc/pic32mx/4.5.1/../../../../pic32mx/lib/libmchp_peripheral_32MX440F128H.a(spi_brg_tbl_lib_legacy.o)

.data%z27       0x00000000        0x0
 .data          0x00000000        0x0 /home/opt/microchip/xc32/v1.00/bin/../lib/gcc/pic32mx/4.5.1/../../../../pic32mx/lib/libmchp_peripheral_32MX440F128H.a(spi_brg_tbl_lib_legacy.o)

.mdebug.abi32%z28
                0x00000000        0x0
 .mdebug.abi32  0x00000000        0x0 /home/opt/microchip/xc32/v1.00/bin/../lib/gcc/pic32mx/4.5.1/../../../../pic32mx/lib/libmchp_peripheral_32MX440F128H.a(spi_open_spi2_lib_legacy.o)

.bss%z29        0x00000000        0x0
 .bss           0x00000000        0x0 /home/opt/microchip/xc32/v1.00/bin/../lib/gcc/pic32mx/4.5.1/../../../../pic32mx/lib/libmchp_peripheral_32MX440F128H.a(spi_open_spi2_lib_legacy.o)

.data%z30       0x00000000        0x0
 .data          0x00000000        0x0 /home/opt/microchip/xc32/v1.00/bin/../lib/gcc/pic32mx/4.5.1/../../../../pic32mx/lib/libmchp_peripheral_32MX440F128H.a(spi_open_spi2_lib_legacy.o)

.mdebug.abi32%z31
                0x00000000        0x0
 .mdebug.abi32  0x00000000        0x0 /home/opt/microchip/xc32/v1.00/bin/../lib/gcc/pic32mx/4.5.1/../../../../pic32mx/lib/libmchp_peripheral_32MX440F128H.a(spi_map_tbl_libp.o)

.bss%z32        0x00000000        0x0
 .bss           0x00000000        0x0 /home/opt/microchip/xc32/v1.00/bin/../lib/gcc/pic32mx/4.5.1/../../../../pic32mx/lib/libmchp_peripheral_32MX440F128H.a(spi_map_tbl_libp.o)

.data%z33       0x00000000        0x0
 .data          0x00000000        0x0 /home/opt/microchip/xc32/v1.00/bin/../lib/gcc/pic32mx/4.5.1/../../../../pic32mx/lib/libmchp_peripheral_32MX440F128H.a(spi_map_tbl_libp.o)

.mdebug.abi32%z34
                0x00000000        0x0
 .mdebug.abi32  0x00000000        0x0 /home/opt/microchip/xc32/v1.00/bin/../lib/gcc/pic32mx/4.5.1/../../../../pic32mx/lib/libmchp_peripheral_32MX440F128H.a(spi_chn_putc_lib.o)

.bss%z35        0x00000000        0x0
 .bss           0x00000000        0x0 /home/opt/microchip/xc32/v1.00/bin/../lib/gcc/pic32mx/4.5.1/../../../../pic32mx/lib/libmchp_peripheral_32MX440F128H.a(spi_chn_putc_lib.o)

.data%z36       0x00000000        0x0
 .data          0x00000000        0x0 /home/opt/microchip/xc32/v1.00/bin/../lib/gcc/pic32mx/4.5.1/../../../../pic32mx/lib/libmchp_peripheral_32MX440F128H.a(spi_chn_putc_lib.o)

.mdebug.abi32%z37
                0x00000000        0x0
 .mdebug.abi32  0x00000000        0x0 /home/opt/microchip/xc32/v1.00/bin/../lib/gcc/pic32mx/4.5.1/../../../../pic32mx/lib/libmchp_peripheral_32MX440F128H.a(spi_chn_getc_lib.o)

.bss%z38        0x00000000        0x0
 .bss           0x00000000        0x0 /home/opt/microchip/xc32/v1.00/bin/../lib/gcc/pic32mx/4.5.1/../../../../pic32mx/lib/libmchp_peripheral_32MX440F128H.a(spi_chn_getc_lib.o)

.data%z39       0x00000000        0x0
 .data          0x00000000        0x0 /home/opt/microchip/xc32/v1.00/bin/../lib/gcc/pic32mx/4.5.1/../../../../pic32mx/lib/libmchp_peripheral_32MX440F128H.a(spi_chn_getc_lib.o)

.mdebug.abi32%z40
                0x00000000        0x0
 .mdebug.abi32  0x00000000        0x0 /home/opt/microchip/xc32/v1.00/bin/../lib/gcc/pic32mx/4.5.1/../../../../pic32mx/lib/libmchp_peripheral_32MX440F128H.a(int_tbl_lib.o)

.bss%z41        0x00000000        0x0
 .bss           0x00000000        0x0 /home/opt/microchip/xc32/v1.00/bin/../lib/gcc/pic32mx/4.5.1/../../../../pic32mx/lib/libmchp_peripheral_32MX440F128H.a(int_tbl_lib.o)

.data%z42       0x00000000        0x0
 .data          0x00000000        0x0 /home/opt/microchip/xc32/v1.00/bin/../lib/gcc/pic32mx/4.5.1/../../../../pic32mx/lib/libmchp_peripheral_32MX440F128H.a(int_tbl_lib.o)

.mdebug.abi32%z43
                0x00000000        0x0
 .mdebug.abi32  0x00000000        0x0 /home/opt/microchip/xc32/v1.00/bin/../lib/gcc/pic32mx/4.5.1/../../../../pic32mx/lib/libmchp_peripheral_32MX440F128H.a(int_enable_mv_int_lib.o)

.bss%z44        0x00000000        0x0
 .bss           0x00000000        0x0 /home/opt/microchip/xc32/v1.00/bin/../lib/gcc/pic32mx/4.5.1/../../../../pic32mx/lib/libmchp_peripheral_32MX440F128H.a(int_enable_mv_int_lib.o)

.data%z45       0x00000000        0x0
 .data          0x00000000        0x0 /home/opt/microchip/xc32/v1.00/bin/../lib/gcc/pic32mx/4.5.1/../../../../pic32mx/lib/libmchp_peripheral_32MX440F128H.a(int_enable_mv_int_lib.o)

.mdebug.abi32%z46
                0x00000000        0x0
 .mdebug.abi32  0x00000000        0x0 /home/opt/microchip/xc32/v1.00/bin/../lib/gcc/pic32mx/4.5.1/../../../../pic32mx/lib/libmchp_peripheral_32MX440F128H.a(int_restore_interrupts_lib.o)

.bss%z47        0x00000000        0x0
 .bss           0x00000000        0x0 /home/opt/microchip/xc32/v1.00/bin/../lib/gcc/pic32mx/4.5.1/../../../../pic32mx/lib/libmchp_peripheral_32MX440F128H.a(int_restore_interrupts_lib.o)

.data%z48       0x00000000        0x0
 .data          0x00000000        0x0 /home/opt/microchip/xc32/v1.00/bin/../lib/gcc/pic32mx/4.5.1/../../../../pic32mx/lib/libmchp_peripheral_32MX440F128H.a(int_restore_interrupts_lib.o)

.mdebug.abi32%z49
                0x00000000        0x0
 .mdebug.abi32  0x00000000        0x0 /home/opt/microchip/xc32/v1.00/bin/../lib/gcc/pic32mx/4.5.1/../../../../pic32mx/lib/libmchp_peripheral_32MX440F128H.a(int_disable_interrupts_lib.o)

.bss%z50        0x00000000        0x0
 .bss           0x00000000        0x0 /home/opt/microchip/xc32/v1.00/bin/../lib/gcc/pic32mx/4.5.1/../../../../pic32mx/lib/libmchp_peripheral_32MX440F128H.a(int_disable_interrupts_lib.o)

.data%z51       0x00000000        0x0
 .data          0x00000000        0x0 /home/opt/microchip/xc32/v1.00/bin/../lib/gcc/pic32mx/4.5.1/../../../../pic32mx/lib/libmchp_peripheral_32MX440F128H.a(int_disable_interrupts_lib.o)

.mdebug.abi32%z52
                0x00000000        0x0
 .mdebug.abi32  0x00000000        0x0 /home/opt/microchip/xc32/v1.00/bin/../lib/gcc/pic32mx/4.5.1/../../../../pic32mx/lib/libmchp_peripheral_32MX440F128H.a(int_enable_interrupts_lib.o)

.bss%z53        0x00000000        0x0
 .bss           0x00000000        0x0 /home/opt/microchip/xc32/v1.00/bin/../lib/gcc/pic32mx/4.5.1/../../../../pic32mx/lib/libmchp_peripheral_32MX440F128H.a(int_enable_interrupts_lib.o)

.data%z54       0x00000000        0x0
 .data          0x00000000        0x0 /home/opt/microchip/xc32/v1.00/bin/../lib/gcc/pic32mx/4.5.1/../../../../pic32mx/lib/libmchp_peripheral_32MX440F128H.a(int_enable_interrupts_lib.o)

.mdebug.abi32%z55
                0x00000000        0x0
 .mdebug.abi32  0x00000000        0x0 /home/opt/microchip/xc32/v1.00/bin/../lib/gcc/pic32mx/4.5.1/../../../../pic32mx/lib/libmchp_peripheral_32MX440F128H.a(pcache.o)

.bss%z56        0x00000000        0x0
 .bss           0x00000000        0x0 /home/opt/microchip/xc32/v1.00/bin/../lib/gcc/pic32mx/4.5.1/../../../../pic32mx/lib/libmchp_peripheral_32MX440F128H.a(pcache.o)

.data%z57       0x00000000        0x0
 .data          0x00000000        0x0 /home/opt/microchip/xc32/v1.00/bin/../lib/gcc/pic32mx/4.5.1/../../../../pic32mx/lib/libmchp_peripheral_32MX440F128H.a(pcache.o)

.bss%z58        0x00000000        0x0
 .bss           0x00000000        0x0 /home/opt/microchip/xc32/v1.00/bin/../lib/gcc/pic32mx/4.5.1/../../../../pic32mx/lib/./proc/32MX440F128H/processor.o

.data%z59       0x00000000        0x0
 .data          0x00000000        0x0 /home/opt/microchip/xc32/v1.00/bin/../lib/gcc/pic32mx/4.5.1/../../../../pic32mx/lib/./proc/32MX440F128H/processor.o

.mdebug.abi32%z60
                0x00000000        0x0
 .mdebug.abi32  0x00000000        0x0 /home/opt/microchip/xc32/v1.00/bin/../lib/gcc/pic32mx/4.5.1/../../../../pic32mx/lib/libe.a(_unorddf2.o)

.bss%z61        0x00000000        0x0
 .bss           0x00000000        0x0 /home/opt/microchip/xc32/v1.00/bin/../lib/gcc/pic32mx/4.5.1/../../../../pic32mx/lib/libe.a(_unorddf2.o)

.data%z62       0x00000000        0x0
 .data          0x00000000        0x0 /home/opt/microchip/xc32/v1.00/bin/../lib/gcc/pic32mx/4.5.1/../../../../pic32mx/lib/libe.a(_unorddf2.o)

.mdebug.abi32%z63
                0x00000000        0x0
 .mdebug.abi32  0x00000000        0x0 /home/opt/microchip/xc32/v1.00/bin/../lib/gcc/pic32mx/4.5.1/../../../../pic32mx/lib/libc.a(isinf.o)

.bss%z64        0x00000000        0x0
 .bss           0x00000000        0x0 /home/opt/microchip/xc32/v1.00/bin/../lib/gcc/pic32mx/4.5.1/../../../../pic32mx/lib/libc.a(isinf.o)

.data%z65       0x00000000        0x0
 .data          0x00000000        0x0 /home/opt/microchip/xc32/v1.00/bin/../lib/gcc/pic32mx/4.5.1/../../../../pic32mx/lib/libc.a(isinf.o)

.mdebug.abi32%z66
                0x00000000        0x0
 .mdebug.abi32  0x00000000        0x0 /home/opt/microchip/xc32/v1.00/bin/../lib/gcc/pic32mx/4.5.1/../../../../pic32mx/lib/libc.a(errno.o)

.bss%z67        0x00000000        0x0
 .bss           0x00000000        0x0 /home/opt/microchip/xc32/v1.00/bin/../lib/gcc/pic32mx/4.5.1/../../../../pic32mx/lib/libc.a(errno.o)

.data%z68       0x00000000        0x0
 .data          0x00000000        0x0 /home/opt/microchip/xc32/v1.00/bin/../lib/gcc/pic32mx/4.5.1/../../../../pic32mx/lib/libc.a(errno.o)

.bss%z69        0x00000000        0x0
 .bss           0x00000000        0x0 /home/opt/microchip/xc32/v1.00/bin/../lib/gcc/pic32mx/4.5.1/../../../../pic32mx/lib/libm.a(sqrt32.o)

.data%z70       0x00000000        0x0
 .data          0x00000000        0x0 /home/opt/microchip/xc32/v1.00/bin/../lib/gcc/pic32mx/4.5.1/../../../../pic32mx/lib/libm.a(sqrt32.o)

.bss%z71        0x00000000        0x0
 .bss           0x00000000        0x0 /home/opt/microchip/xc32/v1.00/bin/../lib/gcc/pic32mx/4.5.1/../../../../pic32mx/lib/libm.a(mod32.o)

.data%z72       0x00000000        0x0
 .data          0x00000000        0x0 /home/opt/microchip/xc32/v1.00/bin/../lib/gcc/pic32mx/4.5.1/../../../../pic32mx/lib/libm.a(mod32.o)

.mdebug.abi32%z73
                0x00000000        0x0
 .mdebug.abi32  0x00000000        0x0 /home/opt/microchip/xc32/v1.00/bin/../lib/gcc/pic32mx/4.5.1/../../../../pic32mx/lib/libm.a(w_sqrt.o)

.bss%z74        0x00000000        0x0
 .bss           0x00000000        0x0 /home/opt/microchip/xc32/v1.00/bin/../lib/gcc/pic32mx/4.5.1/../../../../pic32mx/lib/libm.a(w_sqrt.o)

.data%z75       0x00000000        0x0
 .data          0x00000000        0x0 /home/opt/microchip/xc32/v1.00/bin/../lib/gcc/pic32mx/4.5.1/../../../../pic32mx/lib/libm.a(w_sqrt.o)

.mdebug.abi32%z76
                0x00000000        0x0
 .mdebug.abi32  0x00000000        0x0 /home/opt/microchip/xc32/v1.00/bin/../lib/gcc/pic32mx/4.5.1/../../../../pic32mx/lib/libm.a(w_ldexp.o)

.bss%z77        0x00000000        0x0
 .bss           0x00000000        0x0 /home/opt/microchip/xc32/v1.00/bin/../lib/gcc/pic32mx/4.5.1/../../../../pic32mx/lib/libm.a(w_ldexp.o)

.data%z78       0x00000000        0x0
 .data          0x00000000        0x0 /home/opt/microchip/xc32/v1.00/bin/../lib/gcc/pic32mx/4.5.1/../../../../pic32mx/lib/libm.a(w_ldexp.o)

.mdebug.abi32%z79
                0x00000000        0x0
 .mdebug.abi32  0x00000000        0x0 /home/opt/microchip/xc32/v1.00/bin/../lib/gcc/pic32mx/4.5.1/../../../../pic32mx/lib/libm.a(support.o)

.bss%z80        0x00000000        0x0
 .bss           0x00000000        0x0 /home/opt/microchip/xc32/v1.00/bin/../lib/gcc/pic32mx/4.5.1/../../../../pic32mx/lib/libm.a(support.o)

.data%z81       0x00000000        0x0
 .data          0x00000000        0x0 /home/opt/microchip/xc32/v1.00/bin/../lib/gcc/pic32mx/4.5.1/../../../../pic32mx/lib/libm.a(support.o)

.mdebug.abi32%z82
                0x00000000        0x0
 .mdebug.abi32  0x00000000        0x0 /home/opt/microchip/xc32/v1.00/bin/../lib/gcc/pic32mx/4.5.1/../../../../pic32mx/lib/libm.a(cabs.o)

.bss%z83        0x00000000        0x0
 .bss           0x00000000        0x0 /home/opt/microchip/xc32/v1.00/bin/../lib/gcc/pic32mx/4.5.1/../../../../pic32mx/lib/libm.a(cabs.o)

.data%z84       0x00000000        0x0
 .data          0x00000000        0x0 /home/opt/microchip/xc32/v1.00/bin/../lib/gcc/pic32mx/4.5.1/../../../../pic32mx/lib/libm.a(cabs.o)

.mdebug.abi32%z85
                0x00000000        0x0
 .mdebug.abi32  0x00000000        0x0 /home/opt/microchip/xc32/v1.00/bin/../lib/gcc/pic32mx/4.5.1/../../../../pic32mx/lib/libm.a(s_lib_ver.o)

.bss%z86        0x00000000        0x0
 .bss           0x00000000        0x0 /home/opt/microchip/xc32/v1.00/bin/../lib/gcc/pic32mx/4.5.1/../../../../pic32mx/lib/libm.a(s_lib_ver.o)

.data%z87       0x00000000        0x0
 .data          0x00000000        0x0 /home/opt/microchip/xc32/v1.00/bin/../lib/gcc/pic32mx/4.5.1/../../../../pic32mx/lib/libm.a(s_lib_ver.o)

.bss%z88        0x00000000        0x0
 .bss           0x00000000        0x0 /home/opt/microchip/xc32/v1.00/bin/../lib/gcc/pic32mx/4.5.1/../../../../pic32mx/lib/libm.a(sincof32.o)

.bss%z89        0x00000000        0x0
 .bss           0x00000000        0x0 /home/opt/microchip/xc32/v1.00/bin/../lib/gcc/pic32mx/4.5.1/../../../../pic32mx/lib/libm.a(fpreduct32.o)

.data%z90       0x00000000        0x0
 .data          0x00000000        0x0 /home/opt/microchip/xc32/v1.00/bin/../lib/gcc/pic32mx/4.5.1/../../../../pic32mx/lib/libm.a(fpreduct32.o)

.bss%z91        0x00000000        0x0
 .bss           0x00000000        0x0 /home/opt/microchip/xc32/v1.00/bin/../lib/gcc/pic32mx/4.5.1/../../../../pic32mx/lib/libm.a(fpsin32.o)

.data%z92       0x00000000        0x0
 .data          0x00000000        0x0 /home/opt/microchip/xc32/v1.00/bin/../lib/gcc/pic32mx/4.5.1/../../../../pic32mx/lib/libm.a(fpsin32.o)

.bss%z93        0x00000000        0x0
 .bss           0x00000000        0x0 /home/opt/microchip/xc32/v1.00/bin/../lib/gcc/pic32mx/4.5.1/../../../../pic32mx/lib/libm.a(fpcos32.o)

.data%z94       0x00000000        0x0
 .data          0x00000000        0x0 /home/opt/microchip/xc32/v1.00/bin/../lib/gcc/pic32mx/4.5.1/../../../../pic32mx/lib/libm.a(fpcos32.o)

.bss%z95        0x00000000        0x0
 .bss           0x00000000        0x0 /home/opt/microchip/xc32/v1.00/bin/../lib/gcc/pic32mx/4.5.1/../../../../pic32mx/lib/libm.a(fp32.o)

.data%z96       0x00000000        0x0
 .data          0x00000000        0x0 /home/opt/microchip/xc32/v1.00/bin/../lib/gcc/pic32mx/4.5.1/../../../../pic32mx/lib/libm.a(fp32.o)

.mdebug.abi32%z97
                0x00000000        0x0
 .mdebug.abi32  0x00000000        0x0 /home/opt/microchip/xc32/v1.00/bin/../lib/gcc/pic32mx/4.5.1/../../../../pic32mx/lib/libm.a(w_sqrtf.o)

.bss%z98        0x00000000        0x0
 .bss           0x00000000        0x0 /home/opt/microchip/xc32/v1.00/bin/../lib/gcc/pic32mx/4.5.1/../../../../pic32mx/lib/libm.a(w_sqrtf.o)

.data%z99       0x00000000        0x0
 .data          0x00000000        0x0 /home/opt/microchip/xc32/v1.00/bin/../lib/gcc/pic32mx/4.5.1/../../../../pic32mx/lib/libm.a(w_sqrtf.o)

.bss%z100       0x00000000        0x0
 .bss           0x00000000        0x0 /home/opt/microchip/xc32/v1.00/bin/../lib/gcc/pic32mx/4.5.1/../../../../pic32mx/lib/libm.a(fpsqrt32.o)

.data%z101      0x00000000        0x0
 .data          0x00000000        0x0 /home/opt/microchip/xc32/v1.00/bin/../lib/gcc/pic32mx/4.5.1/../../../../pic32mx/lib/libm.a(fpsqrt32.o)

.bss%z102       0x00000000        0x0
 .bss           0x00000000        0x0 /home/opt/microchip/xc32/v1.00/bin/../lib/gcc/pic32mx/4.5.1/../../../../pic32mx/lib/libm.a(dp32.o)

.data%z103      0x00000000        0x0
 .data          0x00000000        0x0 /home/opt/microchip/xc32/v1.00/bin/../lib/gcc/pic32mx/4.5.1/../../../../pic32mx/lib/libm.a(dp32.o)

.bss%z104       0x00000000        0x0
 .bss           0x00000000        0x0 /home/opt/microchip/xc32/v1.00/bin/../lib/gcc/pic32mx/4.5.1/../../../../pic32mx/lib/libm.a(fpfloo32.o)

.data%z105      0x00000000        0x0
 .data          0x00000000        0x0 /home/opt/microchip/xc32/v1.00/bin/../lib/gcc/pic32mx/4.5.1/../../../../pic32mx/lib/libm.a(fpfloo32.o)

.bss%z106       0x00000000        0x0
 .bss           0x00000000        0x0 /home/opt/microchip/xc32/v1.00/bin/../lib/gcc/pic32mx/4.5.1/../../../../pic32mx/lib/libm.a(fparc32.o)

.mdebug.abi32%z107
                0x00000000        0x0
 .mdebug.abi32  0x00000000        0x0 /home/opt/microchip/xc32/v1.00/bin/../lib/gcc/pic32mx/4.5.1/../../../../pic32mx/lib/libm.a(w_atan2f.o)

.bss%z108       0x00000000        0x0
 .bss           0x00000000        0x0 /home/opt/microchip/xc32/v1.00/bin/../lib/gcc/pic32mx/4.5.1/../../../../pic32mx/lib/libm.a(w_atan2f.o)

.data%z109      0x00000000        0x0
 .data          0x00000000        0x0 /home/opt/microchip/xc32/v1.00/bin/../lib/gcc/pic32mx/4.5.1/../../../../pic32mx/lib/libm.a(w_atan2f.o)

.bss%z110       0x00000000        0x0
 .bss           0x00000000        0x0 /home/opt/microchip/xc32/v1.00/bin/../lib/gcc/pic32mx/4.5.1/../../../../pic32mx/lib/libc.a(default-nmi-handler.o)

.data%z111      0x00000000        0x0
 .data          0x00000000        0x0 /home/opt/microchip/xc32/v1.00/bin/../lib/gcc/pic32mx/4.5.1/../../../../pic32mx/lib/libc.a(default-nmi-handler.o)

.mdebug.abi32%z112
                0x00000000        0x0
 .mdebug.abi32  0x00000000        0x0 /home/opt/microchip/xc32/v1.00/bin/../lib/gcc/pic32mx/4.5.1/../../../../pic32mx/lib/libc.a(default-on-bootstrap.o)

.bss%z113       0x00000000        0x0
 .bss           0x00000000        0x0 /home/opt/microchip/xc32/v1.00/bin/../lib/gcc/pic32mx/4.5.1/../../../../pic32mx/lib/libc.a(default-on-bootstrap.o)

.data%z114      0x00000000        0x0
 .data          0x00000000        0x0 /home/opt/microchip/xc32/v1.00/bin/../lib/gcc/pic32mx/4.5.1/../../../../pic32mx/lib/libc.a(default-on-bootstrap.o)

.mdebug.abi32%z115
                0x00000000        0x0
 .mdebug.abi32  0x00000000        0x0 /home/opt/microchip/xc32/v1.00/bin/../lib/gcc/pic32mx/4.5.1/../../../../pic32mx/lib/libc.a(default-on-reset.o)

.bss%z116       0x00000000        0x0
 .bss           0x00000000        0x0 /home/opt/microchip/xc32/v1.00/bin/../lib/gcc/pic32mx/4.5.1/../../../../pic32mx/lib/libc.a(default-on-reset.o)

.data%z117      0x00000000        0x0
 .data          0x00000000        0x0 /home/opt/microchip/xc32/v1.00/bin/../lib/gcc/pic32mx/4.5.1/../../../../pic32mx/lib/libc.a(default-on-reset.o)

.mdebug.abi32%z118
                0x00000000        0x0
 .mdebug.abi32  0x00000000        0x0 /home/opt/microchip/xc32/v1.00/bin/../lib/gcc/pic32mx/4.5.1/../../../../pic32mx/lib/libc.a(default-bootstrap-exception-handler.o)

.bss%z119       0x00000000        0x0
 .bss           0x00000000        0x0 /home/opt/microchip/xc32/v1.00/bin/../lib/gcc/pic32mx/4.5.1/../../../../pic32mx/lib/libc.a(default-bootstrap-exception-handler.o)

.data%z120      0x00000000        0x0
 .data          0x00000000        0x0 /home/opt/microchip/xc32/v1.00/bin/../lib/gcc/pic32mx/4.5.1/../../../../pic32mx/lib/libc.a(default-bootstrap-exception-handler.o)

.bss%z121       0x00000000        0x0
 .bss           0x00000000        0x0 /home/opt/microchip/xc32/v1.00/bin/../lib/gcc/pic32mx/4.5.1/../../../../pic32mx/lib/libc.a(general-exception.o)

.data%z122      0x00000000        0x0
 .data          0x00000000        0x0 /home/opt/microchip/xc32/v1.00/bin/../lib/gcc/pic32mx/4.5.1/../../../../pic32mx/lib/libc.a(general-exception.o)

.bss%z123       0x00000000        0x0
 .bss           0x00000000        0x0 /home/opt/microchip/xc32/v1.00/bin/../lib/gcc/pic32mx/4.5.1/../../../../pic32mx/lib/libc.a(memset.o)

.data%z124      0x00000000        0x0
 .data          0x00000000        0x0 /home/opt/microchip/xc32/v1.00/bin/../lib/gcc/pic32mx/4.5.1/../../../../pic32mx/lib/libc.a(memset.o)

.mdebug.abi32%z125
                0x00000000        0x0
 .mdebug.abi32  0x00000000        0x0 /home/opt/microchip/xc32/v1.00/bin/../lib/gcc/pic32mx/4.5.1/libgcc.a(floatunsisf.o)

.bss%z126       0x00000000        0x0
 .bss           0x00000000        0x0 /home/opt/microchip/xc32/v1.00/bin/../lib/gcc/pic32mx/4.5.1/libgcc.a(floatunsisf.o)

.data%z127      0x00000000        0x0
 .data          0x00000000        0x0 /home/opt/microchip/xc32/v1.00/bin/../lib/gcc/pic32mx/4.5.1/libgcc.a(floatunsisf.o)

.mdebug.abi32%z128
                0x00000000        0x0
 .mdebug.abi32  0x00000000        0x0 build/default/production/_ext/1445274692/main.o

.data%z129      0x00000000        0x0
 .data          0x00000000        0x0 build/default/production/_ext/1445274692/main.o

.mdebug.abi32%z130
                0x00000000        0x0
 .mdebug.abi32  0x00000000        0x0 build/default/production/_ext/2048476848/Callbacks.o

.bss%z131       0x00000000        0x0
 .bss           0x00000000        0x0 build/default/production/_ext/2048476848/Callbacks.o

.data%z132      0x00000000        0x0
 .data          0x00000000        0x0 build/default/production/_ext/2048476848/Callbacks.o

.mdebug.abi32%z133
                0x00000000        0x0
 .mdebug.abi32  0x00000000        0x0 build/default/production/_ext/2048476848/Namespace_bcs_cartesian.o

.bss%z134       0x00000000        0x0
 .bss           0x00000000        0x0 build/default/production/_ext/2048476848/Namespace_bcs_cartesian.o

.mdebug.abi32%z135
                0x00000000        0x0
 .mdebug.abi32  0x00000000        0x0 build/default/production/_ext/2048476848/UpstreamPackets.o

.data%z136      0x00000000        0x0
 .data          0x00000000        0x0 build/default/production/_ext/2048476848/UpstreamPackets.o

.mdebug.abi32%z137
                0x00000000        0x0
 .mdebug.abi32  0x00000000        0x0 build/default/production/_ext/519170017/PID.o

.data%z138      0x00000000        0x0
 .data          0x00000000        0x0 build/default/production/_ext/519170017/PID.o

.mdebug.abi32%z139
                0x00000000        0x0
 .mdebug.abi32  0x00000000        0x0 build/default/production/_ext/519170017/servoCalibration.o

.data%z140      0x00000000        0x0
 .data          0x00000000        0x0 build/default/production/_ext/519170017/servoCalibration.o

.mdebug.abi32%z141
                0x00000000        0x0
 .mdebug.abi32  0x00000000        0x0 build/default/production/_ext/519170017/StepperSim.o

.bss%z142       0x00000000        0x0
 .bss           0x00000000        0x0 build/default/production/_ext/519170017/StepperSim.o

.data%z143      0x00000000        0x0
 .data          0x00000000        0x0 build/default/production/_ext/519170017/StepperSim.o

.mdebug.abi32%z144
                0x00000000        0x0
 .mdebug.abi32  0x00000000        0x0 build/default/production/_ext/519170017/Calibration.o

.bss%z145       0x00000000        0x0
 .bss           0x00000000        0x0 build/default/production/_ext/519170017/Calibration.o

.data%z146      0x00000000        0x0
 .data          0x00000000        0x0 build/default/production/_ext/519170017/Calibration.o

.mdebug.abi32%z147
                0x00000000        0x0
 .mdebug.abi32  0x00000000        0x0 build/default/production/_ext/519170017/MotionTest.o

.bss%z148       0x00000000        0x0
 .bss           0x00000000        0x0 build/default/production/_ext/519170017/MotionTest.o

.data%z149      0x00000000        0x0
 .data          0x00000000        0x0 build/default/production/_ext/519170017/MotionTest.o

.mdebug.abi32%z150
                0x00000000        0x0
 .mdebug.abi32  0x00000000        0x0 build/default/production/_ext/1494288313/delta.o

.bss%z151       0x00000000        0x0
 .bss           0x00000000        0x0 build/default/production/_ext/1494288313/delta.o

.data%z152      0x00000000        0x0
 .data          0x00000000        0x0 build/default/production/_ext/1494288313/delta.o

.mdebug.abi32%z153
                0x00000000        0x0
 .mdebug.abi32  0x00000000        0x0 build/default/production/_ext/1494288313/DeltaKinematics.o

.bss%z154       0x00000000        0x0
 .bss           0x00000000        0x0 build/default/production/_ext/1494288313/DeltaKinematics.o

.data%z155      0x00000000        0x0
 .data          0x00000000        0x0 build/default/production/_ext/1494288313/DeltaKinematics.o

.mdebug.abi32%z156
                0x00000000        0x0
 .mdebug.abi32  0x00000000        0x0 build/default/production/_ext/1494288313/CartesianController.o

.bss%z157       0x00000000        0x0
 .bss           0x00000000        0x0 build/default/production/_ext/1494288313/CartesianController.o

.data%z158      0x00000000        0x0
 .data          0x00000000        0x0 build/default/production/_ext/1494288313/CartesianController.o

.mdebug.abi32%z159
                0x00000000        0x0
 .mdebug.abi32  0x00000000        0x0 build/default/production/_ext/1494288313/KosselKinematics.o

.bss%z160       0x00000000        0x0
 .bss           0x00000000        0x0 build/default/production/_ext/1494288313/KosselKinematics.o

.data%z161      0x00000000        0x0
 .data          0x00000000        0x0 build/default/production/_ext/1494288313/KosselKinematics.o

.mdebug.abi32%z162
                0x00000000        0x0
 .mdebug.abi32  0x00000000        0x0 build/default/production/_ext/263962707/AS5055.o

.bss%z163       0x00000000        0x0
 .bss           0x00000000        0x0 build/default/production/_ext/263962707/AS5055.o

.data%z164      0x00000000        0x0
 .data          0x00000000        0x0 build/default/production/_ext/263962707/AS5055.o

.mdebug.abi32%z165
                0x00000000        0x0
 .mdebug.abi32  0x00000000        0x0 build/default/production/_ext/263962707/ForgeHeater.o

.data%z166      0x00000000        0x0
 .data          0x00000000        0x0 build/default/production/_ext/263962707/ForgeHeater.o

.mdebug.abi32%z167
                0x00000000        0x0
 .mdebug.abi32  0x00000000        0x0 build/default/production/_ext/263962707/SPIClient.o

.bss%z168       0x00000000        0x0
 .bss           0x00000000        0x0 build/default/production/_ext/263962707/SPIClient.o

.data%z169      0x00000000        0x0
 .data          0x00000000        0x0 build/default/production/_ext/263962707/SPIClient.o

.mdebug.abi32%z170
                0x00000000        0x0
 .mdebug.abi32  0x00000000        0x0 build/default/production/_ext/263962707/Servo.o

.bss%z171       0x00000000        0x0
 .bss           0x00000000        0x0 build/default/production/_ext/263962707/Servo.o

.data%z172      0x00000000        0x0
 .data          0x00000000        0x0 build/default/production/_ext/263962707/Servo.o

.mdebug.abi32%z173
                0x00000000        0x0
 .mdebug.abi32  0x00000000        0x0 build/default/production/_ext/1080174469/Namespace_bcs_rpc.o

.bss%z174       0x00000000        0x0
 .bss           0x00000000        0x0 build/default/production/_ext/1080174469/Namespace_bcs_rpc.o

.mdebug.abi32%z175
                0x00000000        0x0
 .mdebug.abi32  0x00000000        0x0 build/default/production/_ext/1080174469/Namespace_bcs_pid.o

.bss%z176       0x00000000        0x0
 .bss           0x00000000        0x0 build/default/production/_ext/1080174469/Namespace_bcs_pid.o

.mdebug.abi32%z177
                0x00000000        0x0
 .mdebug.abi32  0x00000000        0x0 build/default/production/_ext/1080174469/Namespace_bcs_core.o

.bss%z178       0x00000000        0x0
 .bss           0x00000000        0x0 build/default/production/_ext/1080174469/Namespace_bcs_core.o

.mdebug.abi32%z179
                0x00000000        0x0
 .mdebug.abi32  0x00000000        0x0 build/default/production/_ext/1080174469/Bowler_Server.o

.bss%z180       0x00000000        0x0
 .bss           0x00000000        0x0 build/default/production/_ext/1080174469/Bowler_Server.o

.data%z181      0x00000000        0x0
 .data          0x00000000        0x0 build/default/production/_ext/1080174469/Bowler_Server.o

.mdebug.abi32%z182
                0x00000000        0x0
 .mdebug.abi32  0x00000000        0x0 build/default/production/_ext/1080174469/Scheduler.o

.bss%z183       0x00000000        0x0
 .bss           0x00000000        0x0 build/default/production/_ext/1080174469/Scheduler.o

.data%z184      0x00000000        0x0
 .data          0x00000000        0x0 build/default/production/_ext/1080174469/Scheduler.o

.mdebug.abi32%z185
                0x00000000        0x0
 .mdebug.abi32  0x00000000        0x0 build/default/production/_ext/1080174469/Debug.o

.bss%z186       0x00000000        0x0
 .bss           0x00000000        0x0 build/default/production/_ext/1080174469/Debug.o

.data%z187      0x00000000        0x0
 .data          0x00000000        0x0 build/default/production/_ext/1080174469/Debug.o

.mdebug.abi32%z188
                0x00000000        0x0
 .mdebug.abi32  0x00000000        0x0 build/default/production/_ext/1080174469/Bowler_Transport.o

.bss%z189       0x00000000        0x0
 .bss           0x00000000        0x0 build/default/production/_ext/1080174469/Bowler_Transport.o

.data%z190      0x00000000        0x0
 .data          0x00000000        0x0 build/default/production/_ext/1080174469/Bowler_Transport.o

.mdebug.abi32%z191
                0x00000000        0x0
 .mdebug.abi32  0x00000000        0x0 build/default/production/_ext/1080174469/Bowler_RPC_Process.o

.bss%z192       0x00000000        0x0
 .bss           0x00000000        0x0 build/default/production/_ext/1080174469/Bowler_RPC_Process.o

.data%z193      0x00000000        0x0
 .data          0x00000000        0x0 build/default/production/_ext/1080174469/Bowler_RPC_Process.o

.mdebug.abi32%z194
                0x00000000        0x0
 .mdebug.abi32  0x00000000        0x0 build/default/production/_ext/1080174469/FIFO.o

.bss%z195       0x00000000        0x0
 .bss           0x00000000        0x0 build/default/production/_ext/1080174469/FIFO.o

.data%z196      0x00000000        0x0
 .data          0x00000000        0x0 build/default/production/_ext/1080174469/FIFO.o

.mdebug.abi32%z197
                0x00000000        0x0
 .mdebug.abi32  0x00000000        0x0 build/default/production/_ext/1080174469/Bowler_Stack_Callback.o

.bss%z198       0x00000000        0x0
 .bss           0x00000000        0x0 build/default/production/_ext/1080174469/Bowler_Stack_Callback.o

.data%z199      0x00000000        0x0
 .data          0x00000000        0x0 build/default/production/_ext/1080174469/Bowler_Stack_Callback.o

.mdebug.abi32%z200
                0x00000000        0x0
 .mdebug.abi32  0x00000000        0x0 build/default/production/_ext/1080174469/AbstractPID.o

.bss%z201       0x00000000        0x0
 .bss           0x00000000        0x0 build/default/production/_ext/1080174469/AbstractPID.o

.data%z202      0x00000000        0x0
 .data          0x00000000        0x0 build/default/production/_ext/1080174469/AbstractPID.o

.mdebug.abi32%z203
                0x00000000        0x0
 .mdebug.abi32  0x00000000        0x0 build/default/production/_ext/1080174469/Bowler_Helper.o

.bss%z204       0x00000000        0x0
 .bss           0x00000000        0x0 build/default/production/_ext/1080174469/Bowler_Helper.o

.data%z205      0x00000000        0x0
 .data          0x00000000        0x0 build/default/production/_ext/1080174469/Bowler_Helper.o

.mdebug.abi32%z206
                0x00000000        0x0
 .mdebug.abi32  0x00000000        0x0 build/default/production/_ext/2118813141/Bowler_USB_HAL.o

.bss%z207       0x00000000        0x0
 .bss           0x00000000        0x0 build/default/production/_ext/2118813141/Bowler_USB_HAL.o

.data%z208      0x00000000        0x0
 .data          0x00000000        0x0 build/default/production/_ext/2118813141/Bowler_USB_HAL.o

.mdebug.abi32%z209
                0x00000000        0x0
 .mdebug.abi32  0x00000000        0x0 build/default/production/_ext/2118813141/ADC.o

.bss%z210       0x00000000        0x0
 .bss           0x00000000        0x0 build/default/production/_ext/2118813141/ADC.o

.data%z211      0x00000000        0x0
 .data          0x00000000        0x0 build/default/production/_ext/2118813141/ADC.o

.mdebug.abi32%z212
                0x00000000        0x0
 .mdebug.abi32  0x00000000        0x0 build/default/production/_ext/2118813141/UART.o

.bss%z213       0x00000000        0x0
 .bss           0x00000000        0x0 build/default/production/_ext/2118813141/UART.o

.data%z214      0x00000000        0x0
 .data          0x00000000        0x0 build/default/production/_ext/2118813141/UART.o

.mdebug.abi32%z215
                0x00000000        0x0
 .mdebug.abi32  0x00000000        0x0 build/default/production/_ext/2118813141/Bowler_UART_HAL.o

.data%z216      0x00000000        0x0
 .data          0x00000000        0x0 build/default/production/_ext/2118813141/Bowler_UART_HAL.o

.mdebug.abi32%z217
                0x00000000        0x0
 .mdebug.abi32  0x00000000        0x0 build/default/production/_ext/2118813141/Tick.o

.bss%z218       0x00000000        0x0
 .bss           0x00000000        0x0 build/default/production/_ext/2118813141/Tick.o

.data%z219      0x00000000        0x0
 .data          0x00000000        0x0 build/default/production/_ext/2118813141/Tick.o

.mdebug.abi32%z220
                0x00000000        0x0
 .mdebug.abi32  0x00000000        0x0 build/default/production/_ext/2118813141/LED.o

.bss%z221       0x00000000        0x0
 .bss           0x00000000        0x0 build/default/production/_ext/2118813141/LED.o

.data%z222      0x00000000        0x0
 .data          0x00000000        0x0 build/default/production/_ext/2118813141/LED.o

.mdebug.abi32%z223
                0x00000000        0x0
 .mdebug.abi32  0x00000000        0x0 build/default/production/_ext/2118813141/HAL_P32.o

.data%z224      0x00000000        0x0
 .data          0x00000000        0x0 build/default/production/_ext/2118813141/HAL_P32.o

.mdebug.abi32%z225
                0x00000000        0x0
 .mdebug.abi32  0x00000000        0x0 build/default/production/_ext/2118813141/FlashStorage.o

.bss%z226       0x00000000        0x0
 .bss           0x00000000        0x0 build/default/production/_ext/2118813141/FlashStorage.o

.data%z227      0x00000000        0x0
 .data          0x00000000        0x0 build/default/production/_ext/2118813141/FlashStorage.o

.mdebug.abi32%z228
                0x00000000        0x0
 .mdebug.abi32  0x00000000        0x0 build/default/production/_ext/2118813141/Delay.o

.bss%z229       0x00000000        0x0
 .bss           0x00000000        0x0 build/default/production/_ext/2118813141/Delay.o

.data%z230      0x00000000        0x0
 .data          0x00000000        0x0 build/default/production/_ext/2118813141/Delay.o

.mdebug.abi32%z231
                0x00000000        0x0
 .mdebug.abi32  0x00000000        0x0 build/default/production/_ext/1487882678/usb_device.o

.bss%z232       0x00000000        0x0
 .bss           0x00000000        0x0 build/default/production/_ext/1487882678/usb_device.o

.data%z233      0x00000000        0x0
 .data          0x00000000        0x0 build/default/production/_ext/1487882678/usb_device.o

.mdebug.abi32%z234
                0x00000000        0x0
 .mdebug.abi32  0x00000000        0x0 build/default/production/_ext/1487882678/usb_interrupt.o

.bss%z235       0x00000000        0x0
 .bss           0x00000000        0x0 build/default/production/_ext/1487882678/usb_interrupt.o

.data%z236      0x00000000        0x0
 .data          0x00000000        0x0 build/default/production/_ext/1487882678/usb_interrupt.o

.mdebug.abi32%z237
                0x00000000        0x0
 .mdebug.abi32  0x00000000        0x0 build/default/production/_ext/1487882678/usb_callback.o

.bss%z238       0x00000000        0x0
 .bss           0x00000000        0x0 build/default/production/_ext/1487882678/usb_callback.o

.data%z239      0x00000000        0x0
 .data          0x00000000        0x0 build/default/production/_ext/1487882678/usb_callback.o

.mdebug.abi32%z240
                0x00000000        0x0
 .mdebug.abi32  0x00000000        0x0 build/default/production/_ext/1487882678/usb_fifo.o

.data%z241      0x00000000        0x0
 .data          0x00000000        0x0 build/default/production/_ext/1487882678/usb_fifo.o

.mdebug.abi32%z242
                0x00000000        0x0
 .mdebug.abi32  0x00000000        0x0 build/default/production/_ext/1487882678/usb_function_cdc.o

.bss%z243       0x00000000        0x0
 .bss           0x00000000        0x0 build/default/production/_ext/1487882678/usb_function_cdc.o

.data%z244      0x00000000        0x0
 .data          0x00000000        0x0 build/default/production/_ext/1487882678/usb_function_cdc.o

.mdebug.abi32%z245
                0x00000000        0x0
 .mdebug.abi32  0x00000000        0x0 build/default/production/_ext/1487882678/usb_descriptors.o

.bss%z246       0x00000000        0x0
 .bss           0x00000000        0x0 build/default/production/_ext/1487882678/usb_descriptors.o

.bss%z247       0x00000000        0x0
 .bss           0x00000000        0x0 /home/opt/microchip/xc32/v1.00/bin/../lib/gcc/pic32mx/4.5.1/../../../../pic32mx/lib/crt0.o

.data%z248      0x00000000        0x0
 .data          0x00000000        0x0 /home/opt/microchip/xc32/v1.00/bin/../lib/gcc/pic32mx/4.5.1/../../../../pic32mx/lib/crt0.o

.text           0x9d000008    0x13674
 .text          0x9d000008     0x3140 build/default/production/_ext/1080174469/AbstractPID.o
                0x9d000008                getPidGroupDataTable
                0x9d00002c                isPidEnabled
                0x9d000070                SetPIDEnabled
                0x9d0000c0                SetControllerMath
                0x9d00010c                InitilizePidController
                0x9d0001f0                updatePidAsync
                0x9d0002e8                pushAllPIDPositions
                0x9d000460                prep
                0x9d000528                pushPIDLimitEvent
                0x9d000904                pushPID
                0x9d000b58                RunPDVel
                0x9d000f38                StartPDVel
                0x9d0010f0                GetConfigPDVelocity
                0x9d001210                ConfigPDVelovity
                0x9d001350                GetConfigPID
                0x9d001600                ConfigPID
                0x9d001954                ZeroPID
                0x9d00199c                ClearPID
                0x9d001a04                SetPIDTimed
                0x9d001c9c                SetPID
                0x9d001cec                GetPIDPosition
                0x9d001d64                processPIDGet
                0x9d00200c                processPIDPost
                0x9d002434                processPIDCrit
                0x9d002650                ProcessPIDPacket
                0x9d0026e8                pidResetNoStop
                0x9d002850                pidReset
                0x9d0029c0                InitAbsPID
                0x9d002a20                setPIDConstants
                0x9d002ab0                InitAbsPIDWithPosition
                0x9d002b60                RunVel
                0x9d002be8                isPIDInterpolating
                0x9d002c5c                isPIDArrivedAtSetpoint
                0x9d002cdc                RunPIDControl
                0x9d002e44                RunPIDComs
                0x9d002edc                RunPID
                0x9d002f24                RunAbstractPIDCalc
 .text          0x9d003148     0x2f24 build/default/production/_ext/1487882678/usb_device.o
                0x9d003148                USBDeviceInit
                0x9d003394                _USB1Interrupt
                0x9d0034a4                USBDeviceTasksLocal
                0x9d003858                USBStallHandler
                0x9d00392c                USBSuspend
                0x9d003988                USBWakeFromSuspend
                0x9d0039e0                USBCtrlEPService
                0x9d003bd4                USBCtrlTrfSetupHandler
                0x9d003c7c                USBCtrlTrfOutHandler
                0x9d003d98                USBCtrlTrfInHandler
                0x9d003f90                USBPrepareForNextSetupTrf
                0x9d004098                USBCheckStdRequest
                0x9d004288                USBStdFeatureReqHandler
                0x9d004538                USBStdGetDscHandler
                0x9d00466c                USBStdGetStatusHandler
                0x9d004850                USBCtrlEPServiceComplete
                0x9d004e5c                USBCtrlTrfTxService
                0x9d005018                USBCtrlTrfRxService
                0x9d00537c                USBStdSetCfgHandler
                0x9d0054ec                USBConfigureEndpoint
                0x9d0055d4                USBEnableEndpoint
                0x9d005678                USBStallEndpoint
                0x9d005888                USBTransferOnePacket
                0x9d005b08                USBCancelIO
                0x9d005f3c                USBDeviceDetach
                0x9d005f70                USBDeviceAttach
 .text          0x9d00606c     0x25ac build/default/production/_ext/1445274692/main.o
                0x9d00606c                _general_exception_handler
                0x9d007bc0                Bowler_Server_Local
                0x9d007d7c                hardwareInit
                0x9d00834c                bowlerSystem
                0x9d0084c4                SPItest
                0x9d00859c                main
                0x9d0085f8                HomeLinks
 .text          0x9d008618     0x15a0 build/default/production/_ext/1494288313/CartesianController.o
                0x9d008618                isCartesianInterpolationDone
                0x9d0086b8                initializeCartesianController
                0x9d008758                pushBufferEmpty
                0x9d008844                loadCurrentPosition
                0x9d008934                checkPositionChange
                0x9d008be0                cartesianAsync
                0x9d008c6c                processLinearInterpPacket
                0x9d008ea4                onCartesianPost
                0x9d0090a0                cancelPrint
                0x9d009138                onCartesianGet
                0x9d009160                onCartesianCrit
                0x9d009188                onCartesianPacket
                0x9d009258                interpolateZXY
                0x9d009368                setInterpolateXYZ
                0x9d009614                setXYZ
                0x9d0097c8                linkToHWIndex
                0x9d009878                getLinkScale
                0x9d0098e8                getCurrentPosition
                0x9d009980                getLinkAngle
                0x9d009a04                setLinkAngle
 .text          0x9d009bb8     0x120c build/default/production/_ext/1080174469/Debug.o
                0x9d009bb8                sendToStreamMine
                0x9d009c54                setPrintStream
                0x9d009c98                sendToStreamLocal
                0x9d009cf4                getPrintLevel
                0x9d009d18                setPrintLevel
                0x9d009d54                okToPrint
                0x9d009dc8                GetLowNib
                0x9d009e08                GetHighNib
                0x9d009e50                printfDEBUG
                0x9d009f04                printfDEBUG_BYTE
                0x9d009f68                printfDEBUG_NNL
                0x9d00a004                printfDEBUG_INT
                0x9d00a0fc                printfDEBUG_FL
                0x9d00a238                printPIDvals
                0x9d00a550                printBowlerPacketDEBUG
                0x9d00ab48                printByteArray
                0x9d00ac9c                ultoaMINE
 .text          0x9d00adc4     0x1128 /home/opt/microchip/xc32/v1.00/bin/../lib/gcc/pic32mx/4.5.1/../../../../pic32mx/lib/libm.a(dp32.o)
                0x9d00adc4                dpsub
                0x9d00adc4                __subdf3
                0x9d00adcc                __adddf3
                0x9d00adcc                dpadd
                0x9d00b1f0                dpmul
                0x9d00b1f0                __muldf3
                0x9d00b518                dpdiv
                0x9d00b518                __divdf3
                0x9d00b9cc                __floatsidf
                0x9d00b9cc                litodp
                0x9d00ba40                ultodp
                0x9d00ba90                __extendsfdf2
                0x9d00ba90                fptodp
                0x9d00bb34                dptofp
                0x9d00bb34                __truncdfsf2
                0x9d00bc2c                __fixdfsi
                0x9d00bc2c                dptoli
                0x9d00bcb4                __fixunsdfsi
                0x9d00bcb4                dptoul
                0x9d00bd38                __eqdf2
                0x9d00bd38                __gtdf2
                0x9d00bd38                __ltdf2
                0x9d00bd38                dpcmp
                0x9d00bd38                __ledf2
                0x9d00bd38                __nedf2
                0x9d00bd38                __gedf2
                0x9d00be5c                __negdf2
                0x9d00be74                fabs
                0x9d00be74                dpfabs
                0x9d00be90                nan
                0x9d00be90                dpnan
 .text          0x9d00beec     0x107c build/default/production/_ext/263962707/Servo.o
                0x9d00beec                runSort
                0x9d00c074                setServoTimer
                0x9d00c144                setTimerLowTime
                0x9d00c17c                setTimerPreTime
                0x9d00c1b8                setTimerServoTicks
                0x9d00c228                Timer2Handler
                0x9d00c72c                initServos
                0x9d00c910                setServo
                0x9d00caa0                getServoPosition
                0x9d00cae4                runLinearInterpolationServo
                0x9d00cc1c                SetDIO
                0x9d00ce18                pinOn
                0x9d00ce60                pinOff
                0x9d00cea4                DelayPreServoPulse
                0x9d00ced8                delayLoop
 .text          0x9d00cf68     0x1050 build/default/production/_ext/1494288313/delta.o
                0x9d00cf68                initializeDelta
                0x9d00d000                setConfigurations
                0x9d00d058                delta_calcForward
                0x9d00d99c                delta_calcAngleYZ
                0x9d00ddc4                delta_calcInverse
 .text          0x9d00dfb8      0xf8c build/default/production/_ext/263962707/AS5055.o
                0x9d00dfb8                initializeEncoders
                0x9d00e2bc                readEncoderWithoutOffset
                0x9d00e430                setCurrentValue
                0x9d00e4cc                getRecentEncoderReading
                0x9d00e51c                readEncoder
                0x9d00e65c                encoderSPIInit
                0x9d00e6e8                AS5055CalculateParity
                0x9d00e790                AS5055reset
                0x9d00e830                AS5055ResetErrorFlag
                0x9d00e8bc                printSystemConfig
                0x9d00eb58                AS5055readAngle
                0x9d00ec90                AS5055send
                0x9d00ed64                EncoderSS
 .text          0x9d00ef44      0xbd0 build/default/production/_ext/1080174469/FIFO.o
                0x9d00ef44                printFiFoState
                0x9d00f064                lockFifo
                0x9d00f09c                unLockFifo
                0x9d00f0dc                InitByteFifo
                0x9d00f18c                clearByteFifo
                0x9d00f1f4                ReadFirstByte
                0x9d00f230                calcByteCount
                0x9d00f2e8                FifoGetByteCount
                0x9d00f320                FifoAddByte
                0x9d00f448                getByte
                0x9d00f518                FifoGetByteStream
                0x9d00f604                FifoReadByteStream
                0x9d00f70c                InitPacketFifo
                0x9d00f7b0                FifoAddPacket
                0x9d00f91c                FifoGetPacketCount
                0x9d00f9d4                FifoGetPacketSpaceAvailible
                0x9d00fa24                FifoGetPacket
 .text          0x9d00fb14      0xb74 build/default/production/_ext/1487882678/usb_function_cdc.o
                0x9d00fb14                USBCheckCDCRequest
                0x9d00ff94                CDCInitEP
                0x9d010024                getsUSBUSART
                0x9d010150                USBUSARTRxIsReady
                0x9d0101ac                putUSBUSART
                0x9d01024c                putsUSBUSART
                0x9d010338                putrsUSBUSART
                0x9d010420                CDCTxService
 .text          0x9d010688      0xb10 build/default/production/_ext/519170017/PID.o
                0x9d010688                initPIDLocal
                0x9d010b58                getRunPidIsr
                0x9d010b7c                setPidIsr
                0x9d010ba8                asyncCallback
                0x9d010be8                onPidConfigureMine
                0x9d010cf8                trigerPIDLimit
                0x9d010dd4                checkPIDLimitEventsMine
                0x9d010e18                resetPositionMine
                0x9d010f10                getPositionMine
                0x9d010fd0                setOutputMine
                0x9d011174                isUpToTempreture
 .text          0x9d011198      0xa08 /home/opt/microchip/xc32/v1.00/bin/../lib/gcc/pic32mx/4.5.1/../../../../pic32mx/lib/libm.a(fparc32.o)
                0x9d011198                fpexatan
                0x9d0114e4                fpatan
                0x9d0114e4                atanf
                0x9d011580                fpatan2
                0x9d011580                __mchp_atan2f
                0x9d0117c4                __mchp_asinf
                0x9d0117c4                fpasin
                0x9d01199c                fpacos
                0x9d01199c                __mchp_acosf
 .text          0x9d011ba0      0x968 build/default/production/_ext/1080174469/Bowler_Helper.o
                0x9d011ba0                LoadCorePacket
                0x9d011c6c                CalcCRC
                0x9d011ce4                CheckCRC
                0x9d011d44                SetCRC
                0x9d011d8c                GetRPCValue
                0x9d011e00                READY
                0x9d011e9c                ERR
                0x9d011f38                SetPacketLegnth
                0x9d011f78                GetPacketLegnth
                0x9d011fac                DataLegnthFromPacket
                0x9d011fd8                copyPacket
                0x9d012054                Bytes2Int32
                0x9d0120bc                CheckAddress
                0x9d012144                interpolate
                0x9d012440                bound
 .text          0x9d012508      0x8ec /home/opt/microchip/xc32/v1.00/bin/../lib/gcc/pic32mx/4.5.1/../../../../pic32mx/lib/libm.a(fp32.o)
                0x9d012508                __subsf3
                0x9d012508                fpsub
                0x9d012510                fpadd
                0x9d012510                __addsf3
                0x9d01277c                __mulsf3
                0x9d01277c                fpmul
                0x9d012934                __divsf3
                0x9d012934                fpdiv
                0x9d012b60                sitofp
                0x9d012b60                __floatsisf
                0x9d012b60                litofp
                0x9d012bbc                uitofp
                0x9d012bbc                ultofp
                0x9d012c08                __fixsfsi
                0x9d012c08                fptoli
                0x9d012c08                fptosi
                0x9d012c80                fptoui
                0x9d012c80                __fixunssfsi
                0x9d012c80                fptoul
                0x9d012cf4                __lesf2
                0x9d012cf4                __nesf2
                0x9d012cf4                __gtsf2
                0x9d012cf4                __eqsf2
                0x9d012cf4                __ltsf2
                0x9d012cf4                fpcmp
                0x9d012cf4                __gesf2
                0x9d012d88                fabsf
                0x9d012d88                fpfabs
                0x9d012d98                __negsf2
                0x9d012da8                fpnan
                0x9d012da8                nanf
 .text          0x9d012df4      0x888 build/default/production/_ext/1080174469/Namespace_bcs_core.o
                0x9d012df4                getNumberOfNamespaces
                0x9d012e68                getNumberOfRpcs
                0x9d012f04                getNamespaceAtIndex
                0x9d012fc0                _png
                0x9d013028                _nms
                0x9d013228                addRpcToNamespace
                0x9d013324                addNamespaceToList
                0x9d0133ec                getRpcByID
                0x9d0134b4                getRpcByIndex
                0x9d013564                RunNamespaceAsync
                0x9d013608                getBcsCoreNamespace

.dinit          0x9d01367c      0x828
 .dinit         0x9d01367c      0x828 data_init

.text           0x9d013ea4     0x3438
 .text          0x9d013ea4      0x7a0 build/default/production/_ext/1487882678/usb_fifo.o
                0x9d013ea4                GotUSBData
                0x9d013ecc                GetPICUSBFifo
                0x9d013ef0                SetPICUSBFifo
                0x9d013f40                usb_CDC_Serial_Init
                0x9d014010                USBGetArray
                0x9d0140b8                waitForTxToBeFree
                0x9d0141e8                flush
                0x9d01429c                isUSBActave
                0x9d0142c4                forceOpenUSB
                0x9d0142ec                USBPutArray
                0x9d014500                GetNumUSBBytes
                0x9d014544                usb_Buffer_Update
 .text          0x9d014644      0x714 build/default/production/_ext/519170017/servoCalibration.o
                0x9d014644                incrementHistoresis
                0x9d0146b0                decrementHistoresis
                0x9d01471c                calcCenter
                0x9d014898                getUpperServoHistoresis
                0x9d0148d4                getLowerServoHistoresis
                0x9d014910                getServoStop
                0x9d01494c                runServoCalibration
                0x9d014ae0                servoCalibration
 .text          0x9d014d58      0x6d4 build/default/production/_ext/1494288313/KosselKinematics.o
                0x9d014d58                mc_arc
 .text          0x9d01542c      0x674 build/default/production/_ext/1080174469/Bowler_Transport.o
                0x9d01542c                allign
                0x9d0154f8                _getBowlerPacket
                0x9d015888                GetBowlerPacket
                0x9d0158cc                GetBowlerPacketDebug
                0x9d015910                getNumBytes
                0x9d01594c                getStream
                0x9d0159a0                FixPacket
                0x9d015a2c                PutBowlerPacket
 .text          0x9d015aa0      0x668 build/default/production/_ext/2118813141/FlashStorage.o
                0x9d015aa0                FlashLoad
                0x9d015b18                FlashSync
                0x9d015bb8                FlashSetMac
                0x9d015c78                FlashSetName
                0x9d015d00                FlashGetMac
                0x9d015de8                FlashGetName
                0x9d015e68                FlashGetBlRev
                0x9d015ee8                FlashGetFwRev
                0x9d015f68                FlashSetFwRev
                0x9d016038                FlashSetBlRev
 .text          0x9d016108      0x650 build/default/production/_ext/263962707/ForgeHeater.o
                0x9d016108                heaterPin
                0x9d0161bc                mapHeaterIndex
                0x9d016234                initializeHeater
                0x9d01646c                resetHeater
                0x9d016494                getHeaterTempreture
                0x9d0164f8                setHeater
                0x9d016590                Timer3Handler
 .text          0x9d016758      0x5c8 /home/opt/microchip/xc32/v1.00/bin/../lib/gcc/pic32mx/4.5.1/../../../../pic32mx/lib/libm.a(mod32.o)
                0x9d016758                dpfmod
                0x9d016758                fmod
                0x9d0169f8                dpfrexp
                0x9d0169f8                frexp
                0x9d016a9c                __mchp_ldexp
                0x9d016a9c                dpldexp
                0x9d016c04                modf
                0x9d016c04                dpmodf
 .text          0x9d016d20      0x5bc /home/opt/microchip/xc32/v1.00/bin/../lib/gcc/pic32mx/4.5.1/../../../../pic32mx/lib/libm.a(sqrt32.o)
                0x9d016d20                exsqrt
                0x9d016fb8                __mchp_sqrt
                0x9d016fb8                dpsqrt

.rodata         0x9d0172dc      0xa74
 .rodata        0x9d0172dc      0x54c build/default/production/_ext/1445274692/main.o
                0x9d0172dc                MY_MAC_ADDRESS
 .rodata        0x9d017828      0x528 /home/opt/microchip/xc32/v1.00/bin/../lib/gcc/pic32mx/4.5.1/../../../../pic32mx/lib/libmchp_peripheral_32MX440F128H.a(int_tbl_lib.o)
                0x9d017828                __IntSrcTbl
                0x9d017b28                __IntVectorTbl

.text           0x9d017d50      0x9f8
 .text          0x9d017d50      0x4fc build/default/production/_ext/2118813141/Bowler_UART_HAL.o
                0x9d017d50                GotUARTData
                0x9d017d78                GetPICUARTFifo
                0x9d017d9c                SetPICUARTFifo
                0x9d017dc8                newByteUartHal
                0x9d017e48                U1_ISR
                0x9d017f64                CalcBaud
                0x9d017fc0                Pic32UARTSetBaud
                0x9d0180d0                Pic32UART_HAL_INIT
                0x9d018130                Pic32UARTGetArray
                0x9d018194                Pic32Get_UART_Byte_Count
                0x9d0181d0                Pic32UARTPutArray
 .text          0x9d01824c      0x4fc build/default/production/_ext/1080174469/Namespace_bcs_rpc.o
                0x9d01824c                _rpc
                0x9d0183f4                _rpcArgs
                0x9d0186d4                getBcsRpcNamespace

.text.dreml     0x9d018748      0x488
 .text.dreml    0x9d018748      0x488 /home/opt/microchip/xc32/v1.00/bin/../lib/gcc/pic32mx/4.5.1/../../../../pic32mx/lib/libm.a(support.o)
                0x9d018748                dreml

.text           0x9d018bd0      0xcec
 .text          0x9d018bd0      0x45c build/default/production/_ext/2118813141/HAL_P32.o
                0x9d018bd0                Pic32_Bowler_HAL_Init
                0x9d018c74                Get_HAL_Packet
                0x9d018d24                Send_HAL_Packet
                0x9d018db4                Get_HAL_Byte_Count
                0x9d018e64                GetBowlerPacket_arch
                0x9d018f08                putStream
                0x9d018f54                getMs
                0x9d018f84                putCharDebug
                0x9d018fc4                startScheduler
                0x9d018ff4                EnableDebugTerminal
 .text          0x9d01902c      0x450 build/default/production/_ext/2048476848/UpstreamPackets.o
                0x9d01902c                push
                0x9d019080                pushPIDMine
                0x9d01933c                pushEncoders
 .text          0x9d01947c      0x440 build/default/production/_ext/2118813141/ADC.o
                0x9d01947c                InitADCHardware
                0x9d01973c                getAdcRaw
                0x9d01984c                getAdcVoltage

.text.hypotl    0x9d0198bc      0x430
 .text.hypotl   0x9d0198bc      0x430 /home/opt/microchip/xc32/v1.00/bin/../lib/gcc/pic32mx/4.5.1/../../../../pic32mx/lib/libm.a(cabs.o)
                0x9d0198bc                hypotl

.text           0x9d019cec      0x3a0
 .text          0x9d019cec      0x3a0 build/default/production/_ext/1080174469/Bowler_Server.o
                0x9d019cec                Bowler_Init
                0x9d019d3c                process
                0x9d019f00                Bowler_Server_Static
                0x9d019f6c                Bowler_Server

.text.atan2f    0x9d01a08c      0x334
 .text.atan2f   0x9d01a08c      0x334 /home/opt/microchip/xc32/v1.00/bin/../lib/gcc/pic32mx/4.5.1/../../../../pic32mx/lib/libm.a(w_atan2f.o)
                0x9d01a08c                atan2f

.text           0x9d01a3c0     0x1794
 .text          0x9d01a3c0      0x2cc build/default/production/_ext/1487882678/usb_callback.o
                0x9d01a3c0                USBCBSuspend
                0x9d01a3e0                USBCBWakeFromSuspend
                0x9d01a400                USBCB_SOF_Handler
                0x9d01a420                USBCBErrorHandler
                0x9d01a440                USBCBCheckOtherReq
                0x9d01a470                USBCBStdSetDscHandler
                0x9d01a490                USBCBInitEP
                0x9d01a4c0                USBCBSendResume
                0x9d01a528                USER_USB_CALLBACK_EVENT_HANDLER
                0x9d01a65c                mySetLineCodingHandler
 .text          0x9d01a68c      0x2bc build/default/production/_ext/1080174469/Bowler_RPC_Process.o
                0x9d01a68c                getLastPacketTime
                0x9d01a704                Process_Self_Packet
 .text          0x9d01a948      0x2b8 build/default/production/_ext/2118813141/Tick.o
                0x9d01a948                TickInit
                0x9d01a9e4                TickGet
                0x9d01aa24                TickGetUpper
                0x9d01aa48                TickGetLower
                0x9d01aa6c                MyTickConvertToMilliseconds
                0x9d01aac4                TickGetMS
                0x9d01ab54                Timer1Handler
 .text          0x9d01ac00      0x2a0 /home/opt/microchip/xc32/v1.00/bin/../lib/gcc/pic32mx/4.5.1/../../../../pic32mx/lib/libm.a(fpsqrt32.o)
                0x9d01ac00                fpexsqrt
                0x9d01acf8                __mchp_sqrtf
                0x9d01acf8                fpsqrt
 .text          0x9d01aea0      0x214 build/default/production/_ext/519170017/StepperSim.o
                0x9d01aea0                StartStepperSim
                0x9d01aec0                getStepperSimCurrent
                0x9d01aee4                INT1_ISR
 .text          0x9d01b0b4      0x208 build/default/production/_ext/2118813141/UART.o
                0x9d01b0b4                Write32UART2
                0x9d01b1bc                Write32UART1
 .text          0x9d01b2bc      0x204 build/default/production/_ext/2118813141/LED.o
                0x9d01b2bc                InitLEDS
                0x9d01b328                SetGreen
                0x9d01b38c                SetRed
                0x9d01b3f0                SetBlue
                0x9d01b454                SetColor
 .text          0x9d01b4c0      0x1d4 build/default/production/_ext/2118813141/Delay.o
                0x9d01b4c0                DelayMs
                0x9d01b554                DelayPreServo
                0x9d01b5b8                DelayIncServo
                0x9d01b5d8                Delay10us
                0x9d01b630                Delay1us
 .text          0x9d01b694      0x1a8 build/default/production/_ext/1080174469/Namespace_bcs_pid.o
                0x9d01b694                pidAsyncEventCallbackLocal
                0x9d01b6d8                getBcsPidNamespace
 .text          0x9d01b83c      0x190 build/default/production/_ext/1080174469/Scheduler.o
                0x9d01b83c                RunEvery
 .text          0x9d01b9cc      0x188 build/default/production/_ext/1487882678/usb_descriptors.o
                0x9d01b9cc                WriteUSBSerialNumber
                0x9d01ba68                SetUSB_VID_PID
                0x9d01bab8                WriteUSBDeviceString

.rodata         0x9d01bb54      0x308
 .rodata        0x9d01bb54      0x188 build/default/production/_ext/1080174469/Debug.o
                0x9d01bb54                AsciiHex
 .rodata        0x9d01bcdc      0x180 build/default/production/_ext/1494288313/CartesianController.o

.text           0x9d01be5c      0x150
 .text          0x9d01be5c      0x150 build/default/production/_ext/2048476848/Callbacks.o
                0x9d01be5c                UserGetRPCs
                0x9d01becc                UserPostRPCs
                0x9d01bf3c                UserCriticalRPCs

.text.logbl     0x9d01bfac      0x120
 .text.logbl    0x9d01bfac      0x120 /home/opt/microchip/xc32/v1.00/bin/../lib/gcc/pic32mx/4.5.1/../../../../pic32mx/lib/libm.a(support.o)
                0x9d01bfac                logbl

.text           0x9d01c0cc      0x22c
 .text          0x9d01c0cc      0x118 /home/opt/microchip/xc32/v1.00/bin/../lib/gcc/pic32mx/4.5.1/../../../../pic32mx/lib/libm.a(fpsin32.o)
                0x9d01c0cc                fpsin
                0x9d01c0cc                sinf
 .text          0x9d01c1e4      0x114 /home/opt/microchip/xc32/v1.00/bin/../lib/gcc/pic32mx/4.5.1/../../../../pic32mx/lib/libm.a(fpcos32.o)
                0x9d01c1e4                fpcos
                0x9d01c1e4                cosf

.text._NVMOperation
                0x9d01c2f8      0x114
 .text._NVMOperation
                0x9d01c2f8      0x114 /home/opt/microchip/xc32/v1.00/bin/../lib/gcc/pic32mx/4.5.1/../../../../pic32mx/lib/libmchp_peripheral_32MX440F128H.a(nvm_operation_lib.o)
                0x9d01c2f8                _NVMOperation

.text           0x9d01c40c      0x108
 .text          0x9d01c40c      0x108 /home/opt/microchip/xc32/v1.00/bin/../lib/gcc/pic32mx/4.5.1/../../../../pic32mx/lib/libm.a(fpreduct32.o)
                0x9d01c40c                fpreduct

.rodata         0x9d01c514       0xf8
 .rodata        0x9d01c514       0xf8 build/default/production/_ext/519170017/servoCalibration.o

.text           0x9d01c60c       0xec
 .text          0x9d01c60c       0xec build/default/production/_ext/2048476848/Namespace_bcs_cartesian.o
                0x9d01c60c                cartesianAsyncEventCallback
                0x9d01c684                getBcsCartesianNamespace

.text.general_exception
                0x9d01c6f8       0xd0
 .text.general_exception
                0x9d01c6f8       0xd0 /home/opt/microchip/xc32/v1.00/bin/../lib/gcc/pic32mx/4.5.1/../../../../pic32mx/lib/libc.a(general-exception.o)
                0x9d01c6f8                _general_exception_context

.text           0x9d01c7c8       0xc4
 .text          0x9d01c7c8       0xc4 build/default/production/_ext/2118813141/Bowler_USB_HAL.o
                0x9d01c7c8                GetPacketUSB
                0x9d01c814                SendPacketUSB
                0x9d01c85c                Get_USB_Byte_Count

.rodata         0x9d01c88c       0xb4
 .rodata        0x9d01c88c       0xb4 build/default/production/_ext/1080174469/Bowler_Transport.o

.text           0x9d01c940      0x200
 .text          0x9d01c940       0xb0 /home/opt/microchip/xc32/v1.00/bin/../lib/gcc/pic32mx/4.5.1/../../../../pic32mx/lib/libm.a(fpfloo32.o)
                0x9d01c940                fpfloor
                0x9d01c940                floorf
 .text          0x9d01c9f0       0xa8 build/default/production/_ext/263962707/SPIClient.o
                0x9d01c9f0                SPITransceve
                0x9d01ca50                get
 .text          0x9d01ca98       0xa8 /home/opt/microchip/xc32/v1.00/bin/../lib/gcc/pic32mx/4.5.1/../../../../pic32mx/lib/libc.a(memset.o)
                0x9d01ca98                memset

.rodata         0x9d01cb40       0x90
 .rodata        0x9d01cb40       0x90 build/default/production/_ext/1080174469/AbstractPID.o

.text.isinf     0x9d01cbd0       0x88
 .text.isinf    0x9d01cbd0       0x88 /home/opt/microchip/xc32/v1.00/bin/../lib/gcc/pic32mx/4.5.1/../../../../pic32mx/lib/libc.a(isinf.o)
                0x9d01cbd0                isinf

.text.isinff    0x9d01cc58       0x88
 .text.isinff   0x9d01cc58       0x88 /home/opt/microchip/xc32/v1.00/bin/../lib/gcc/pic32mx/4.5.1/../../../../pic32mx/lib/libc.a(isinf.o)
                0x9d01cc58                isinff

.rodata         0x9d01cce0      0x100
 .rodata        0x9d01cce0       0x80 build/default/production/_ext/263962707/AS5055.o
 .rodata        0x9d01cd60       0x80 /home/opt/microchip/xc32/v1.00/bin/../lib/gcc/pic32mx/4.5.1/../../../../pic32mx/lib/libmchp_peripheral_32MX440F128H.a(spi_brg_tbl_lib_legacy.o)
                0x9d01cd60                _SpiBrgConvTbl

.text.UARTEnable
                0x9d01cde0       0x80
 .text.UARTEnable
                0x9d01cde0       0x80 /home/opt/microchip/xc32/v1.00/bin/../lib/gcc/pic32mx/4.5.1/../../../../pic32mx/lib/libmchp_peripheral_32MX440F128H.a(uart_lib.o)
                0x9d01cde0                UARTEnable

.rodata         0x9d01ce60       0x68
 .rodata        0x9d01ce60       0x68 build/default/production/_ext/1080174469/FIFO.o

.text.__unorddf2
                0x9d01cec8       0x64
 .text.__unorddf2
                0x9d01cec8       0x64 /home/opt/microchip/xc32/v1.00/bin/../lib/gcc/pic32mx/4.5.1/../../../../pic32mx/lib/libe.a(_unorddf2.o)
                0x9d01cec8                __unorddf2

.text.copysign  0x9d01cf2c       0x60
 .text.copysign
                0x9d01cf2c       0x60 /home/opt/microchip/xc32/v1.00/bin/../lib/gcc/pic32mx/4.5.1/../../../../pic32mx/lib/libm.a(support.o)
                0x9d01cf2c                copysign

.text.copysignf
                0x9d01cf8c       0x60
 .text.copysignf
                0x9d01cf8c       0x60 /home/opt/microchip/xc32/v1.00/bin/../lib/gcc/pic32mx/4.5.1/../../../../pic32mx/lib/libm.a(support.o)
                0x9d01cf8c                copysignf

.text.ldexp     0x9d01cfec       0x60
 .text.ldexp    0x9d01cfec       0x60 /home/opt/microchip/xc32/v1.00/bin/../lib/gcc/pic32mx/4.5.1/../../../../pic32mx/lib/libm.a(w_ldexp.o)
                0x9d01cfec                ldexp

.text.sqrt      0x9d01d04c       0x60
 .text.sqrt     0x9d01d04c       0x60 /home/opt/microchip/xc32/v1.00/bin/../lib/gcc/pic32mx/4.5.1/../../../../pic32mx/lib/libm.a(w_sqrt.o)
                0x9d01d04c                sqrt

.text.OpenSPI2  0x9d01d0ac       0x60
 .text.OpenSPI2
                0x9d01d0ac       0x60 /home/opt/microchip/xc32/v1.00/bin/../lib/gcc/pic32mx/4.5.1/../../../../pic32mx/lib/libmchp_peripheral_32MX440F128H.a(spi_open_spi2_lib_legacy.o)
                0x9d01d0ac                OpenSPI2

.rodata         0x9d01d10c       0x5c
 .rodata        0x9d01d10c       0x5c build/default/production/_ext/1080174469/Bowler_Server.o
                0x9d01d10c                Broadcast

.text.UARTSetDataRate
                0x9d01d168       0x5c
 .text.UARTSetDataRate
                0x9d01d168       0x5c /home/opt/microchip/xc32/v1.00/bin/../lib/gcc/pic32mx/4.5.1/../../../../pic32mx/lib/libmchp_peripheral_32MX440F128H.a(uart_lib.o)
                0x9d01d168                UARTSetDataRate

.text.INTEnable
                0x9d01d1c4       0x58
 .text.INTEnable
                0x9d01d1c4       0x58 /home/opt/microchip/xc32/v1.00/bin/../lib/gcc/pic32mx/4.5.1/../../../../pic32mx/lib/libmchp_peripheral_32MX440F128H.a(int_tbl_lib.o)
                0x9d01d1c4                INTEnable

.rodata         0x9d01d21c       0xe8
 .rodata        0x9d01d21c       0x50 build/default/production/_ext/1080174469/Namespace_bcs_pid.o
 .rodata        0x9d01d26c       0x4c build/default/production/_ext/1080174469/Bowler_RPC_Process.o
 .rodata        0x9d01d2b8       0x4c build/default/production/_ext/1080174469/Namespace_bcs_core.o
                0x9d01d2b8                coreName

.text.sqrtf     0x9d01d304       0x4c
 .text.sqrtf    0x9d01d304       0x4c /home/opt/microchip/xc32/v1.00/bin/../lib/gcc/pic32mx/4.5.1/../../../../pic32mx/lib/libm.a(w_sqrtf.o)
                0x9d01d304                sqrtf

.text           0x9d01d350       0x48
 .text          0x9d01d350       0x48 /home/opt/microchip/xc32/v1.00/bin/../lib/gcc/pic32mx/4.5.1/libgcc.a(floatunsisf.o)
                0x9d01d350                __floatunsisf

.rodata         0x9d01d398       0x8c
 .rodata        0x9d01d398       0x48 /home/opt/microchip/xc32/v1.00/bin/../lib/gcc/pic32mx/4.5.1/../../../../pic32mx/lib/libmchp_peripheral_32MX440F128H.a(_ports_tbl_libp.o)
                0x9d01d398                PortRegTbl
 .rodata        0x9d01d3e0       0x44 build/default/production/_ext/1487882678/usb_function_cdc.o

.text.PORTSetPinsDigitalOut
                0x9d01d424       0x40
 .text.PORTSetPinsDigitalOut
                0x9d01d424       0x40 /home/opt/microchip/xc32/v1.00/bin/../lib/gcc/pic32mx/4.5.1/../../../../pic32mx/lib/libmchp_peripheral_32MX440F128H.a(port_set_pins_digital_out_lib.o)
                0x9d01d424                PORTSetPinsDigitalOut

.text.UARTGetDataRate
                0x9d01d464       0x40
 .text.UARTGetDataRate
                0x9d01d464       0x40 /home/opt/microchip/xc32/v1.00/bin/../lib/gcc/pic32mx/4.5.1/../../../../pic32mx/lib/libmchp_peripheral_32MX440F128H.a(uart_lib.o)
                0x9d01d464                UARTGetDataRate

.text.INTSetVectorPriority
                0x9d01d4a4       0x3c
 .text.INTSetVectorPriority
                0x9d01d4a4       0x3c /home/opt/microchip/xc32/v1.00/bin/../lib/gcc/pic32mx/4.5.1/../../../../pic32mx/lib/libmchp_peripheral_32MX440F128H.a(int_tbl_lib.o)
                0x9d01d4a4                INTSetVectorPriority

.text.INTSetVectorSubPriority
                0x9d01d4e0       0x3c
 .text.INTSetVectorSubPriority
                0x9d01d4e0       0x3c /home/opt/microchip/xc32/v1.00/bin/../lib/gcc/pic32mx/4.5.1/../../../../pic32mx/lib/libmchp_peripheral_32MX440F128H.a(int_tbl_lib.o)
                0x9d01d4e0                INTSetVectorSubPriority

.text.UARTConfigure
                0x9d01d51c       0x3c
 .text.UARTConfigure
                0x9d01d51c       0x3c /home/opt/microchip/xc32/v1.00/bin/../lib/gcc/pic32mx/4.5.1/../../../../pic32mx/lib/libmchp_peripheral_32MX440F128H.a(uart_lib.o)
                0x9d01d51c                UARTConfigure

.text.UARTSetAddress
                0x9d01d558       0x3c
 .text.UARTSetAddress
                0x9d01d558       0x3c /home/opt/microchip/xc32/v1.00/bin/../lib/gcc/pic32mx/4.5.1/../../../../pic32mx/lib/libmchp_peripheral_32MX440F128H.a(uart_lib.o)
                0x9d01d558                UARTSetAddress

.rodata         0x9d01d594       0x70
 .rodata        0x9d01d594       0x38 build/default/production/_ext/519170017/PID.o
 .rodata        0x9d01d5cc       0x38 build/default/production/_ext/2048476848/UpstreamPackets.o

.text.UARTWatchForAddress
                0x9d01d604       0x38
 .text.UARTWatchForAddress
                0x9d01d604       0x38 /home/opt/microchip/xc32/v1.00/bin/../lib/gcc/pic32mx/4.5.1/../../../../pic32mx/lib/libmchp_peripheral_32MX440F128H.a(uart_lib.o)
                0x9d01d604                UARTWatchForAddress

.rodata         0x9d01d63c       0x34
 .rodata        0x9d01d63c       0x34 build/default/production/_ext/1487882678/usb_fifo.o

.text.copysignl
                0x9d01d670       0x34
 .text.copysignl
                0x9d01d670       0x34 /home/opt/microchip/xc32/v1.00/bin/../lib/gcc/pic32mx/4.5.1/../../../../pic32mx/lib/libm.a(support.o)
                0x9d01d670                copysignl

.text.finite    0x9d01d6a4       0x34
 .text.finite   0x9d01d6a4       0x34 /home/opt/microchip/xc32/v1.00/bin/../lib/gcc/pic32mx/4.5.1/../../../../pic32mx/lib/libm.a(support.o)
                0x9d01d6a4                finite

.text.finitef   0x9d01d6d8       0x34
 .text.finitef  0x9d01d6d8       0x34 /home/opt/microchip/xc32/v1.00/bin/../lib/gcc/pic32mx/4.5.1/../../../../pic32mx/lib/libm.a(support.o)
                0x9d01d6d8                finitef

.text.isnan     0x9d01d70c       0x34
 .text.isnan    0x9d01d70c       0x34 /home/opt/microchip/xc32/v1.00/bin/../lib/gcc/pic32mx/4.5.1/../../../../pic32mx/lib/libc.a(isinf.o)
                0x9d01d70c                isnan

.text.isnanf    0x9d01d740       0x34
 .text.isnanf   0x9d01d740       0x34 /home/opt/microchip/xc32/v1.00/bin/../lib/gcc/pic32mx/4.5.1/../../../../pic32mx/lib/libc.a(isinf.o)
                0x9d01d740                isnanf

.text.INTEnableSystemMultiVectoredInt
                0x9d01d774       0x34
 .text.INTEnableSystemMultiVectoredInt
                0x9d01d774       0x34 /home/opt/microchip/xc32/v1.00/bin/../lib/gcc/pic32mx/4.5.1/../../../../pic32mx/lib/libmchp_peripheral_32MX440F128H.a(int_enable_mv_int_lib.o)
                0x9d01d774                INTEnableSystemMultiVectoredInt

.text.NVMWriteWord
                0x9d01d7a8       0x34
 .text.NVMWriteWord
                0x9d01d7a8       0x34 /home/opt/microchip/xc32/v1.00/bin/../lib/gcc/pic32mx/4.5.1/../../../../pic32mx/lib/libmchp_peripheral_32MX440F128H.a(nvm_write_word_lib.o)
                0x9d01d7a8                NVMWriteWord

.text.INTGetVectorPriority
                0x9d01d7dc       0x30
 .text.INTGetVectorPriority
                0x9d01d7dc       0x30 /home/opt/microchip/xc32/v1.00/bin/../lib/gcc/pic32mx/4.5.1/../../../../pic32mx/lib/libmchp_peripheral_32MX440F128H.a(int_tbl_lib.o)
                0x9d01d7dc                INTGetVectorPriority

.text.INTGetVectorSubPriority
                0x9d01d80c       0x30
 .text.INTGetVectorSubPriority
                0x9d01d80c       0x30 /home/opt/microchip/xc32/v1.00/bin/../lib/gcc/pic32mx/4.5.1/../../../../pic32mx/lib/libmchp_peripheral_32MX440F128H.a(int_tbl_lib.o)
                0x9d01d80c                INTGetVectorSubPriority

.text.SpiChnGetC
                0x9d01d83c       0x30
 .text.SpiChnGetC
                0x9d01d83c       0x30 /home/opt/microchip/xc32/v1.00/bin/../lib/gcc/pic32mx/4.5.1/../../../../pic32mx/lib/libmchp_peripheral_32MX440F128H.a(spi_chn_getc_lib.o)
                0x9d01d83c                SpiChnGetC

.text.SpiChnPutC
                0x9d01d86c       0x30
 .text.SpiChnPutC
                0x9d01d86c       0x30 /home/opt/microchip/xc32/v1.00/bin/../lib/gcc/pic32mx/4.5.1/../../../../pic32mx/lib/libmchp_peripheral_32MX440F128H.a(spi_chn_putc_lib.o)
                0x9d01d86c                SpiChnPutC

.text.INTClearFlag
                0x9d01d89c       0x2c
 .text.INTClearFlag
                0x9d01d89c       0x2c /home/opt/microchip/xc32/v1.00/bin/../lib/gcc/pic32mx/4.5.1/../../../../pic32mx/lib/libmchp_peripheral_32MX440F128H.a(int_tbl_lib.o)
                0x9d01d89c                INTClearFlag

.text.INTSetFlag
                0x9d01d8c8       0x2c
 .text.INTSetFlag
                0x9d01d8c8       0x2c /home/opt/microchip/xc32/v1.00/bin/../lib/gcc/pic32mx/4.5.1/../../../../pic32mx/lib/libmchp_peripheral_32MX440F128H.a(int_tbl_lib.o)
                0x9d01d8c8                INTSetFlag

.text.INTGetFlag
                0x9d01d8f4       0x2c
 .text.INTGetFlag
                0x9d01d8f4       0x2c /home/opt/microchip/xc32/v1.00/bin/../lib/gcc/pic32mx/4.5.1/../../../../pic32mx/lib/libmchp_peripheral_32MX440F128H.a(int_tbl_lib.o)
                0x9d01d8f4                INTGetFlag

.text.INTGetEnable
                0x9d01d920       0x2c
 .text.INTGetEnable
                0x9d01d920       0x2c /home/opt/microchip/xc32/v1.00/bin/../lib/gcc/pic32mx/4.5.1/../../../../pic32mx/lib/libmchp_peripheral_32MX440F128H.a(int_tbl_lib.o)
                0x9d01d920                INTGetEnable

.text.NVMErasePage
                0x9d01d94c       0x2c
 .text.NVMErasePage
                0x9d01d94c       0x2c /home/opt/microchip/xc32/v1.00/bin/../lib/gcc/pic32mx/4.5.1/../../../../pic32mx/lib/libmchp_peripheral_32MX440F128H.a(nvm_erase_page_lib.o)
                0x9d01d94c                NVMErasePage

.rodata         0x9d01d978       0x78
 .rodata        0x9d01d978       0x28 build/default/production/_ext/1494288313/delta.o
 .rodata        0x9d01d9a0       0x28 build/default/production/_ext/2048476848/Namespace_bcs_cartesian.o
 .rodata        0x9d01d9c8       0x28 /home/opt/microchip/xc32/v1.00/bin/../lib/gcc/pic32mx/4.5.1/../../../../pic32mx/lib/libm.a(w_atan2f.o)

.text.hypot     0x9d01d9f0       0x28
 .text.hypot    0x9d01d9f0       0x28 /home/opt/microchip/xc32/v1.00/bin/../lib/gcc/pic32mx/4.5.1/../../../../pic32mx/lib/libm.a(cabs.o)
                0x9d01d9f0                hypot

.text.hypotf    0x9d01da18       0x28
 .text.hypotf   0x9d01da18       0x28 /home/opt/microchip/xc32/v1.00/bin/../lib/gcc/pic32mx/4.5.1/../../../../pic32mx/lib/libm.a(cabs.o)
                0x9d01da18                hypotf

.rodata         0x9d01da40       0x28
 .rodata        0x9d01da40       0x28 /home/opt/microchip/xc32/v1.00/bin/../lib/gcc/pic32mx/4.5.1/../../../../pic32mx/lib/libm.a(cabs.o)

.text.logb      0x9d01da68       0x28
 .text.logb     0x9d01da68       0x28 /home/opt/microchip/xc32/v1.00/bin/../lib/gcc/pic32mx/4.5.1/../../../../pic32mx/lib/libm.a(support.o)
                0x9d01da68                logb

.text.logbf     0x9d01da90       0x28
 .text.logbf    0x9d01da90       0x28 /home/opt/microchip/xc32/v1.00/bin/../lib/gcc/pic32mx/4.5.1/../../../../pic32mx/lib/libm.a(support.o)
                0x9d01da90                logbf

.text.drem      0x9d01dab8       0x28
 .text.drem     0x9d01dab8       0x28 /home/opt/microchip/xc32/v1.00/bin/../lib/gcc/pic32mx/4.5.1/../../../../pic32mx/lib/libm.a(support.o)
                0x9d01dab8                drem

.text.dremf     0x9d01dae0       0x28
 .text.dremf    0x9d01dae0       0x28 /home/opt/microchip/xc32/v1.00/bin/../lib/gcc/pic32mx/4.5.1/../../../../pic32mx/lib/libm.a(support.o)
                0x9d01dae0                dremf

.text.isnanl    0x9d01db08       0x28
 .text.isnanl   0x9d01db08       0x28 /home/opt/microchip/xc32/v1.00/bin/../lib/gcc/pic32mx/4.5.1/../../../../pic32mx/lib/libc.a(isinf.o)
                0x9d01db08                isnanl

.text.isinfl    0x9d01db30       0x28
 .text.isinfl   0x9d01db30       0x28 /home/opt/microchip/xc32/v1.00/bin/../lib/gcc/pic32mx/4.5.1/../../../../pic32mx/lib/libc.a(isinf.o)
                0x9d01db30                isinfl

.text.PORTClearBits
                0x9d01db58       0x28
 .text.PORTClearBits
                0x9d01db58       0x28 /home/opt/microchip/xc32/v1.00/bin/../lib/gcc/pic32mx/4.5.1/../../../../pic32mx/lib/libmchp_peripheral_32MX440F128H.a(port_clear_bits_lib.o)
                0x9d01db58                PORTClearBits

.text.PORTSetBits
                0x9d01db80       0x28
 .text.PORTSetBits
                0x9d01db80       0x28 /home/opt/microchip/xc32/v1.00/bin/../lib/gcc/pic32mx/4.5.1/../../../../pic32mx/lib/libmchp_peripheral_32MX440F128H.a(port_set_bits_lib.o)
                0x9d01db80                PORTSetBits

.text.UARTSetFifoMode
                0x9d01dba8       0x28
 .text.UARTSetFifoMode
                0x9d01dba8       0x28 /home/opt/microchip/xc32/v1.00/bin/../lib/gcc/pic32mx/4.5.1/../../../../pic32mx/lib/libmchp_peripheral_32MX440F128H.a(uart_lib.o)
                0x9d01dba8                UARTSetFifoMode

.text.UARTSetLineControl
                0x9d01dbd0       0x28
 .text.UARTSetLineControl
                0x9d01dbd0       0x28 /home/opt/microchip/xc32/v1.00/bin/../lib/gcc/pic32mx/4.5.1/../../../../pic32mx/lib/libmchp_peripheral_32MX440F128H.a(uart_lib.o)
                0x9d01dbd0                UARTSetLineControl

.rodata         0x9d01dbf8       0x40
 .rodata        0x9d01dbf8       0x20 build/default/production/_ext/1080174469/Namespace_bcs_rpc.o
 .rodata        0x9d01dc18       0x20 /home/opt/microchip/xc32/v1.00/bin/../lib/gcc/pic32mx/4.5.1/../../../../pic32mx/lib/libm.a(support.o)

.text.SpiChnReadC
                0x9d01dc38       0x20
 .text.SpiChnReadC
                0x9d01dc38       0x20 /home/opt/microchip/xc32/v1.00/bin/../lib/gcc/pic32mx/4.5.1/../../../../pic32mx/lib/libmchp_peripheral_32MX440F128H.a(spi_chn_getc_lib.o)
                0x9d01dc38                SpiChnReadC

.text.SpiChnWriteC
                0x9d01dc58       0x20
 .text.SpiChnWriteC
                0x9d01dc58       0x20 /home/opt/microchip/xc32/v1.00/bin/../lib/gcc/pic32mx/4.5.1/../../../../pic32mx/lib/libmchp_peripheral_32MX440F128H.a(spi_chn_putc_lib.o)
                0x9d01dc58                SpiChnWriteC

.rodata         0x9d01dc78       0x1c
 .rodata        0x9d01dc78       0x1c build/default/production/_ext/1080174469/Bowler_Helper.o

.text.finitel   0x9d01dc94       0x1c
 .text.finitel  0x9d01dc94       0x1c /home/opt/microchip/xc32/v1.00/bin/../lib/gcc/pic32mx/4.5.1/../../../../pic32mx/lib/libm.a(support.o)
                0x9d01dc94                finitel

.text.INTRestoreInterrupts
                0x9d01dcb0       0x1c
 .text.INTRestoreInterrupts
                0x9d01dcb0       0x1c /home/opt/microchip/xc32/v1.00/bin/../lib/gcc/pic32mx/4.5.1/../../../../pic32mx/lib/libmchp_peripheral_32MX440F128H.a(int_restore_interrupts_lib.o)
                0x9d01dcb0                INTRestoreInterrupts

.text.SpiChnBuffer
                0x9d01dccc       0x1c
 .text.SpiChnBuffer
                0x9d01dccc       0x1c /home/opt/microchip/xc32/v1.00/bin/../lib/gcc/pic32mx/4.5.1/../../../../pic32mx/lib/libmchp_peripheral_32MX440F128H.a(spi_chn_putc_lib.o)
                0x9d01dccc                SpiChnBuffer

.rodata         0x9d01dce8       0x30
 .rodata        0x9d01dce8       0x18 build/default/production/_ext/263962707/Servo.o
 .rodata        0x9d01dd00       0x18 build/default/production/_ext/263962707/ForgeHeater.o

.text           0x9d01dd18       0x18
 .text          0x9d01dd18       0x18 /home/opt/microchip/xc32/v1.00/bin/../lib/gcc/pic32mx/4.5.1/../../../../pic32mx/lib/libc.a(default-nmi-handler.o)
                0x9d01dd18                _nmi_handler

.text.CheKseg0CacheOff
                0x9d01dd30       0x18
 .text.CheKseg0CacheOff
                0x9d01dd30       0x18 /home/opt/microchip/xc32/v1.00/bin/../lib/gcc/pic32mx/4.5.1/../../../../pic32mx/lib/libmchp_peripheral_32MX440F128H.a(pcache.o)
                0x9d01dd30                CheKseg0CacheOff

.text.CheKseg0CacheOn
                0x9d01dd48       0x18
 .text.CheKseg0CacheOn
                0x9d01dd48       0x18 /home/opt/microchip/xc32/v1.00/bin/../lib/gcc/pic32mx/4.5.1/../../../../pic32mx/lib/libmchp_peripheral_32MX440F128H.a(pcache.o)
                0x9d01dd48                CheKseg0CacheOn

.rodata         0x9d01dd60       0x14
 .rodata        0x9d01dd60       0x14 /home/opt/microchip/xc32/v1.00/bin/../lib/gcc/pic32mx/4.5.1/../../../../pic32mx/lib/libmchp_peripheral_32MX440F128H.a(spi_map_tbl_libp.o)
                0x9d01dd60                _SpiMapTbl

.text           0x9d01dd74       0x10
 .text          0x9d01dd74       0x10 /home/opt/microchip/xc32/v1.00/bin/../lib/gcc/pic32mx/4.5.1/../../../../pic32mx/lib/crt0.o
                0x9d01dd7c                __crt0_exit

.rodata         0x9d01dd84       0x1c
 .rodata        0x9d01dd84       0x10 build/default/production/_ext/1494288313/KosselKinematics.o
 .rodata        0x9d01dd94        0xc build/default/production/_ext/2118813141/Tick.o

.text._bootstrap_exception_handler
                0x9d01dda0        0xc
 .text._bootstrap_exception_handler
                0x9d01dda0        0xc /home/opt/microchip/xc32/v1.00/bin/../lib/gcc/pic32mx/4.5.1/../../../../pic32mx/lib/libc.a(default-bootstrap-exception-handler.o)
                0x9d01dda0                _bootstrap_exception_handler

.text._on_reset
                0x9d01ddac        0x8
 .text._on_reset
                0x9d01ddac        0x8 /home/opt/microchip/xc32/v1.00/bin/../lib/gcc/pic32mx/4.5.1/../../../../pic32mx/lib/libc.a(default-on-reset.o)
                0x9d01ddac                _on_reset

.text._on_bootstrap
                0x9d01ddb4        0x8
 .text._on_bootstrap
                0x9d01ddb4        0x8 /home/opt/microchip/xc32/v1.00/bin/../lib/gcc/pic32mx/4.5.1/../../../../pic32mx/lib/libc.a(default-on-bootstrap.o)
                0x9d01ddb4                _on_bootstrap

.rodata         0x9d01ddc0        0x8
 .rodata        0x9d01ddc0        0x8 /home/opt/microchip/xc32/v1.00/bin/../lib/gcc/pic32mx/4.5.1/../../../../pic32mx/lib/libc.a(isinf.o)

.text.INTEnableInterrupts
                0x9d01ddc8        0x8
 .text.INTEnableInterrupts
                0x9d01ddc8        0x8 /home/opt/microchip/xc32/v1.00/bin/../lib/gcc/pic32mx/4.5.1/../../../../pic32mx/lib/libmchp_peripheral_32MX440F128H.a(int_enable_interrupts_lib.o)
                0x9d01ddc8                INTEnableInterrupts

.text.INTDisableInterrupts
                0x9d01ddd0        0x8
 .text.INTDisableInterrupts
                0x9d01ddd0        0x8 /home/opt/microchip/xc32/v1.00/bin/../lib/gcc/pic32mx/4.5.1/../../../../pic32mx/lib/libmchp_peripheral_32MX440F128H.a(int_disable_interrupts_lib.o)
                0x9d01ddd0                INTDisableInterrupts

.rodata         0x9d01ddd8        0x8
 .rodata        0x9d01ddd8        0x8 /home/opt/microchip/xc32/v1.00/bin/../lib/gcc/pic32mx/4.5.1/../../../../pic32mx/lib/libmchp_peripheral_32MX440F128H.a(uart_lib.o)
                0x9d01ddd8                uartReg

.rodata         0x9d01ddbc        0x4
 .rodata        0x9d01ddbc        0x4 build/default/production/_ext/2118813141/ADC.o

.text%z249      0x00000000        0x0
 .text          0x00000000        0x0 /home/opt/microchip/xc32/v1.00/bin/../lib/gcc/pic32mx/4.5.1/../../../../pic32mx/lib/libmchp_peripheral_32MX440F128H.a(uart_lib.o)

.text%z250      0x00000000        0x0
 .text          0x00000000        0x0 /home/opt/microchip/xc32/v1.00/bin/../lib/gcc/pic32mx/4.5.1/../../../../pic32mx/lib/libmchp_peripheral_32MX440F128H.a(_ports_tbl_libp.o)

.text%z251      0x00000000        0x0
 .text          0x00000000        0x0 /home/opt/microchip/xc32/v1.00/bin/../lib/gcc/pic32mx/4.5.1/../../../../pic32mx/lib/libmchp_peripheral_32MX440F128H.a(port_set_bits_lib.o)

.text%z252      0x00000000        0x0
 .text          0x00000000        0x0 /home/opt/microchip/xc32/v1.00/bin/../lib/gcc/pic32mx/4.5.1/../../../../pic32mx/lib/libmchp_peripheral_32MX440F128H.a(port_clear_bits_lib.o)

.text%z253      0x00000000        0x0
 .text          0x00000000        0x0 /home/opt/microchip/xc32/v1.00/bin/../lib/gcc/pic32mx/4.5.1/../../../../pic32mx/lib/libmchp_peripheral_32MX440F128H.a(port_set_pins_digital_out_lib.o)

.text%z254      0x00000000        0x0
 .text          0x00000000        0x0 /home/opt/microchip/xc32/v1.00/bin/../lib/gcc/pic32mx/4.5.1/../../../../pic32mx/lib/libmchp_peripheral_32MX440F128H.a(nvm_write_word_lib.o)

.text%z255      0x00000000        0x0
 .text          0x00000000        0x0 /home/opt/microchip/xc32/v1.00/bin/../lib/gcc/pic32mx/4.5.1/../../../../pic32mx/lib/libmchp_peripheral_32MX440F128H.a(nvm_operation_lib.o)

.text%z256      0x00000000        0x0
 .text          0x00000000        0x0 /home/opt/microchip/xc32/v1.00/bin/../lib/gcc/pic32mx/4.5.1/../../../../pic32mx/lib/libmchp_peripheral_32MX440F128H.a(nvm_erase_page_lib.o)

.text%z257      0x00000000        0x0
 .text          0x00000000        0x0 /home/opt/microchip/xc32/v1.00/bin/../lib/gcc/pic32mx/4.5.1/../../../../pic32mx/lib/libmchp_peripheral_32MX440F128H.a(spi_brg_tbl_lib_legacy.o)

.text%z258      0x00000000        0x0
 .text          0x00000000        0x0 /home/opt/microchip/xc32/v1.00/bin/../lib/gcc/pic32mx/4.5.1/../../../../pic32mx/lib/libmchp_peripheral_32MX440F128H.a(spi_open_spi2_lib_legacy.o)

.text%z259      0x00000000        0x0
 .text          0x00000000        0x0 /home/opt/microchip/xc32/v1.00/bin/../lib/gcc/pic32mx/4.5.1/../../../../pic32mx/lib/libmchp_peripheral_32MX440F128H.a(spi_map_tbl_libp.o)

.text%z260      0x00000000        0x0
 .text          0x00000000        0x0 /home/opt/microchip/xc32/v1.00/bin/../lib/gcc/pic32mx/4.5.1/../../../../pic32mx/lib/libmchp_peripheral_32MX440F128H.a(spi_chn_putc_lib.o)

.text%z261      0x00000000        0x0
 .text          0x00000000        0x0 /home/opt/microchip/xc32/v1.00/bin/../lib/gcc/pic32mx/4.5.1/../../../../pic32mx/lib/libmchp_peripheral_32MX440F128H.a(spi_chn_getc_lib.o)

.text%z262      0x00000000        0x0
 .text          0x00000000        0x0 /home/opt/microchip/xc32/v1.00/bin/../lib/gcc/pic32mx/4.5.1/../../../../pic32mx/lib/libmchp_peripheral_32MX440F128H.a(int_tbl_lib.o)

.text%z263      0x00000000        0x0
 .text          0x00000000        0x0 /home/opt/microchip/xc32/v1.00/bin/../lib/gcc/pic32mx/4.5.1/../../../../pic32mx/lib/libmchp_peripheral_32MX440F128H.a(int_enable_mv_int_lib.o)

.text%z264      0x00000000        0x0
 .text          0x00000000        0x0 /home/opt/microchip/xc32/v1.00/bin/../lib/gcc/pic32mx/4.5.1/../../../../pic32mx/lib/libmchp_peripheral_32MX440F128H.a(int_restore_interrupts_lib.o)

.text%z265      0x00000000        0x0
 .text          0x00000000        0x0 /home/opt/microchip/xc32/v1.00/bin/../lib/gcc/pic32mx/4.5.1/../../../../pic32mx/lib/libmchp_peripheral_32MX440F128H.a(int_disable_interrupts_lib.o)

.text%z266      0x00000000        0x0
 .text          0x00000000        0x0 /home/opt/microchip/xc32/v1.00/bin/../lib/gcc/pic32mx/4.5.1/../../../../pic32mx/lib/libmchp_peripheral_32MX440F128H.a(int_enable_interrupts_lib.o)

.text%z267      0x00000000        0x0
 .text          0x00000000        0x0 /home/opt/microchip/xc32/v1.00/bin/../lib/gcc/pic32mx/4.5.1/../../../../pic32mx/lib/libmchp_peripheral_32MX440F128H.a(pcache.o)

.text%z268      0x00000000        0x0
 .text          0x00000000        0x0 /home/opt/microchip/xc32/v1.00/bin/../lib/gcc/pic32mx/4.5.1/../../../../pic32mx/lib/./proc/32MX440F128H/processor.o

.text%z269      0x00000000        0x0
 .text          0x00000000        0x0 /home/opt/microchip/xc32/v1.00/bin/../lib/gcc/pic32mx/4.5.1/../../../../pic32mx/lib/libe.a(_unorddf2.o)

.text%z270      0x00000000        0x0
 .text          0x00000000        0x0 /home/opt/microchip/xc32/v1.00/bin/../lib/gcc/pic32mx/4.5.1/../../../../pic32mx/lib/libc.a(isinf.o)

.text%z271      0x00000000        0x0
 .text          0x00000000        0x0 /home/opt/microchip/xc32/v1.00/bin/../lib/gcc/pic32mx/4.5.1/../../../../pic32mx/lib/libc.a(errno.o)

.text%z272      0x00000000        0x0
 .text          0x00000000        0x0 /home/opt/microchip/xc32/v1.00/bin/../lib/gcc/pic32mx/4.5.1/../../../../pic32mx/lib/libm.a(w_sqrt.o)

.text%z273      0x00000000        0x0
 .text          0x00000000        0x0 /home/opt/microchip/xc32/v1.00/bin/../lib/gcc/pic32mx/4.5.1/../../../../pic32mx/lib/libm.a(w_ldexp.o)

.text%z274      0x00000000        0x0
 .text          0x00000000        0x0 /home/opt/microchip/xc32/v1.00/bin/../lib/gcc/pic32mx/4.5.1/../../../../pic32mx/lib/libm.a(support.o)

.text%z275      0x00000000        0x0
 .text          0x00000000        0x0 /home/opt/microchip/xc32/v1.00/bin/../lib/gcc/pic32mx/4.5.1/../../../../pic32mx/lib/libm.a(cabs.o)

.text%z276      0x00000000        0x0
 .text          0x00000000        0x0 /home/opt/microchip/xc32/v1.00/bin/../lib/gcc/pic32mx/4.5.1/../../../../pic32mx/lib/libm.a(s_lib_ver.o)

.text%z277      0x00000000        0x0
 .text          0x00000000        0x0 /home/opt/microchip/xc32/v1.00/bin/../lib/gcc/pic32mx/4.5.1/../../../../pic32mx/lib/libm.a(sincof32.o)

.text%z278      0x00000000        0x0
 .text          0x00000000        0x0 /home/opt/microchip/xc32/v1.00/bin/../lib/gcc/pic32mx/4.5.1/../../../../pic32mx/lib/libm.a(w_sqrtf.o)

.text%z279      0x00000000        0x0
 .text          0x00000000        0x0 /home/opt/microchip/xc32/v1.00/bin/../lib/gcc/pic32mx/4.5.1/../../../../pic32mx/lib/libm.a(w_atan2f.o)

.text%z280      0x00000000        0x0
 .text          0x00000000        0x0 /home/opt/microchip/xc32/v1.00/bin/../lib/gcc/pic32mx/4.5.1/../../../../pic32mx/lib/libc.a(default-on-bootstrap.o)

.text%z281      0x00000000        0x0
 .text          0x00000000        0x0 /home/opt/microchip/xc32/v1.00/bin/../lib/gcc/pic32mx/4.5.1/../../../../pic32mx/lib/libc.a(default-on-reset.o)

.text%z282      0x00000000        0x0
 .text          0x00000000        0x0 /home/opt/microchip/xc32/v1.00/bin/../lib/gcc/pic32mx/4.5.1/../../../../pic32mx/lib/libc.a(default-bootstrap-exception-handler.o)

.text%z283      0x00000000        0x0
 .text          0x00000000        0x0 /home/opt/microchip/xc32/v1.00/bin/../lib/gcc/pic32mx/4.5.1/../../../../pic32mx/lib/libc.a(general-exception.o)

.text%z284      0x00000000        0x0
 .text          0x00000000        0x0 build/default/production/_ext/519170017/Calibration.o

.text%z285      0x00000000        0x0
 .text          0x00000000        0x0 build/default/production/_ext/519170017/MotionTest.o

.text%z286      0x00000000        0x0
 .text          0x00000000        0x0 build/default/production/_ext/1494288313/DeltaKinematics.o

.text%z287      0x00000000        0x0
 .text          0x00000000        0x0 build/default/production/_ext/1080174469/Bowler_Stack_Callback.o

.text%z288      0x00000000        0x0
 .text          0x00000000        0x0 build/default/production/_ext/1487882678/usb_interrupt.o
