Archive member included because of file (symbol)

/home/opt/microchip/xc32/v1.00/bin/../lib/gcc/pic32mx/4.5.1/libgcc.a(floatunsisf.o)
                              build/default/debug/_ext/2118813141/Tick.o (__floatunsisf)
/home/opt/microchip/xc32/v1.00/bin/../lib/gcc/pic32mx/4.5.1/../../../../pic32mx/lib/libc.a(memset.o)
                              build/default/debug/_ext/1487882678/usb_device.o (memset)
/home/opt/microchip/xc32/v1.00/bin/../lib/gcc/pic32mx/4.5.1/../../../../pic32mx/lib/libc.a(general-exception.o)
                              /home/opt/microchip/xc32/v1.00/bin/../lib/gcc/pic32mx/4.5.1/../../../../pic32mx/lib/crt0.o (_general_exception_context)
/home/opt/microchip/xc32/v1.00/bin/../lib/gcc/pic32mx/4.5.1/../../../../pic32mx/lib/libc.a(default-bootstrap-exception-handler.o)
                              /home/opt/microchip/xc32/v1.00/bin/../lib/gcc/pic32mx/4.5.1/../../../../pic32mx/lib/crt0.o (_bootstrap_exception_handler)
/home/opt/microchip/xc32/v1.00/bin/../lib/gcc/pic32mx/4.5.1/../../../../pic32mx/lib/libc.a(default-on-reset.o)
                              /home/opt/microchip/xc32/v1.00/bin/../lib/gcc/pic32mx/4.5.1/../../../../pic32mx/lib/crt0.o (_on_reset)
/home/opt/microchip/xc32/v1.00/bin/../lib/gcc/pic32mx/4.5.1/../../../../pic32mx/lib/libc.a(default-on-bootstrap.o)
                              /home/opt/microchip/xc32/v1.00/bin/../lib/gcc/pic32mx/4.5.1/../../../../pic32mx/lib/crt0.o (_on_bootstrap)
/home/opt/microchip/xc32/v1.00/bin/../lib/gcc/pic32mx/4.5.1/../../../../pic32mx/lib/libc.a(default-nmi-handler.o)
                              /home/opt/microchip/xc32/v1.00/bin/../lib/gcc/pic32mx/4.5.1/../../../../pic32mx/lib/crt0.o (_nmi_handler)
/home/opt/microchip/xc32/v1.00/bin/../lib/gcc/pic32mx/4.5.1/../../../../pic32mx/lib/libm.a(fparc32.o)
                              build/default/debug/_ext/711791526/delta.o (atanf)
/home/opt/microchip/xc32/v1.00/bin/../lib/gcc/pic32mx/4.5.1/../../../../pic32mx/lib/libm.a(fpsqrt32.o)
                              /home/opt/microchip/xc32/v1.00/bin/../lib/gcc/pic32mx/4.5.1/../../../../pic32mx/lib/libm.a(fparc32.o) (fpexsqrt)
/home/opt/microchip/xc32/v1.00/bin/../lib/gcc/pic32mx/4.5.1/../../../../pic32mx/lib/libm.a(w_sqrtf.o)
                              build/default/debug/_ext/711791526/delta.o (sqrtf)
/home/opt/microchip/xc32/v1.00/bin/../lib/gcc/pic32mx/4.5.1/../../../../pic32mx/lib/libm.a(fp32.o)
                              build/default/debug/_ext/1487882678/usb_fifo.o (fpsub)
/home/opt/microchip/xc32/v1.00/bin/../lib/gcc/pic32mx/4.5.1/../../../../pic32mx/lib/libm.a(fpcos32.o)
                              build/default/debug/_ext/711791526/delta.o (cosf)
/home/opt/microchip/xc32/v1.00/bin/../lib/gcc/pic32mx/4.5.1/../../../../pic32mx/lib/libm.a(fpsin32.o)
                              build/default/debug/_ext/711791526/delta.o (sinf)
/home/opt/microchip/xc32/v1.00/bin/../lib/gcc/pic32mx/4.5.1/../../../../pic32mx/lib/libm.a(fpreduct32.o)
                              /home/opt/microchip/xc32/v1.00/bin/../lib/gcc/pic32mx/4.5.1/../../../../pic32mx/lib/libm.a(fpcos32.o) (fpreduct)
/home/opt/microchip/xc32/v1.00/bin/../lib/gcc/pic32mx/4.5.1/../../../../pic32mx/lib/libm.a(sincof32.o)
                              /home/opt/microchip/xc32/v1.00/bin/../lib/gcc/pic32mx/4.5.1/../../../../pic32mx/lib/libm.a(fpcos32.o) (_sincof)
/home/opt/microchip/xc32/v1.00/bin/../lib/gcc/pic32mx/4.5.1/../../../../pic32mx/lib/libm.a(s_lib_ver.o)
                              /home/opt/microchip/xc32/v1.00/bin/../lib/gcc/pic32mx/4.5.1/../../../../pic32mx/lib/libm.a(w_sqrtf.o) (math_errhandling)
/home/opt/microchip/xc32/v1.00/bin/../lib/gcc/pic32mx/4.5.1/../../../../pic32mx/lib/libc.a(errno.o)
                              /home/opt/microchip/xc32/v1.00/bin/../lib/gcc/pic32mx/4.5.1/../../../../pic32mx/lib/libm.a(w_sqrtf.o) (errno)
/home/opt/microchip/xc32/v1.00/bin/../lib/gcc/pic32mx/4.5.1/../../../../pic32mx/lib/libmchp_peripheral_32MX440F128H.a(pcache.o)
                              build/default/debug/_ext/711791526/main.o (CheKseg0CacheOn)
/home/opt/microchip/xc32/v1.00/bin/../lib/gcc/pic32mx/4.5.1/../../../../pic32mx/lib/libmchp_peripheral_32MX440F128H.a(int_enable_interrupts_lib.o)
                              build/default/debug/_ext/1487882678/usb_device.o (INTEnableInterrupts)
/home/opt/microchip/xc32/v1.00/bin/../lib/gcc/pic32mx/4.5.1/../../../../pic32mx/lib/libmchp_peripheral_32MX440F128H.a(int_disable_interrupts_lib.o)
                              build/default/debug/_ext/1080174469/FIFO.o (INTDisableInterrupts)
/home/opt/microchip/xc32/v1.00/bin/../lib/gcc/pic32mx/4.5.1/../../../../pic32mx/lib/libmchp_peripheral_32MX440F128H.a(int_restore_interrupts_lib.o)
                              build/default/debug/_ext/711791526/main.o (INTRestoreInterrupts)
/home/opt/microchip/xc32/v1.00/bin/../lib/gcc/pic32mx/4.5.1/../../../../pic32mx/lib/libmchp_peripheral_32MX440F128H.a(int_enable_mv_int_lib.o)
                              build/default/debug/_ext/1487882678/usb_fifo.o (INTEnableSystemMultiVectoredInt)
/home/opt/microchip/xc32/v1.00/bin/../lib/gcc/pic32mx/4.5.1/../../../../pic32mx/lib/libmchp_peripheral_32MX440F128H.a(int_tbl_lib.o)
                              build/default/debug/_ext/2118813141/Bowler_UART_HAL.o (INTClearFlag)
/home/opt/microchip/xc32/v1.00/bin/../lib/gcc/pic32mx/4.5.1/../../../../pic32mx/lib/libmchp_peripheral_32MX440F128H.a(spi_chn_getc_lib.o)
                              build/default/debug/_ext/711791526/SPIClient.o (SpiChnGetC)
/home/opt/microchip/xc32/v1.00/bin/../lib/gcc/pic32mx/4.5.1/../../../../pic32mx/lib/libmchp_peripheral_32MX440F128H.a(spi_chn_putc_lib.o)
                              build/default/debug/_ext/711791526/SPIClient.o (SpiChnPutC)
/home/opt/microchip/xc32/v1.00/bin/../lib/gcc/pic32mx/4.5.1/../../../../pic32mx/lib/libmchp_peripheral_32MX440F128H.a(spi_map_tbl_libp.o)
                              /home/opt/microchip/xc32/v1.00/bin/../lib/gcc/pic32mx/4.5.1/../../../../pic32mx/lib/libmchp_peripheral_32MX440F128H.a(spi_chn_getc_lib.o) (_SpiMapTbl)
/home/opt/microchip/xc32/v1.00/bin/../lib/gcc/pic32mx/4.5.1/../../../../pic32mx/lib/libmchp_peripheral_32MX440F128H.a(spi_open_spi2_lib_legacy.o)
                              build/default/debug/_ext/711791526/AS5055.o (OpenSPI2)
/home/opt/microchip/xc32/v1.00/bin/../lib/gcc/pic32mx/4.5.1/../../../../pic32mx/lib/libmchp_peripheral_32MX440F128H.a(spi_brg_tbl_lib_legacy.o)
                              /home/opt/microchip/xc32/v1.00/bin/../lib/gcc/pic32mx/4.5.1/../../../../pic32mx/lib/libmchp_peripheral_32MX440F128H.a(spi_open_spi2_lib_legacy.o) (_SpiBrgConvTbl)
/home/opt/microchip/xc32/v1.00/bin/../lib/gcc/pic32mx/4.5.1/../../../../pic32mx/lib/libmchp_peripheral_32MX440F128H.a(nvm_erase_page_lib.o)
                              build/default/debug/_ext/2118813141/FlashStorage.o (NVMErasePage)
/home/opt/microchip/xc32/v1.00/bin/../lib/gcc/pic32mx/4.5.1/../../../../pic32mx/lib/libmchp_peripheral_32MX440F128H.a(nvm_operation_lib.o)
                              /home/opt/microchip/xc32/v1.00/bin/../lib/gcc/pic32mx/4.5.1/../../../../pic32mx/lib/libmchp_peripheral_32MX440F128H.a(nvm_erase_page_lib.o) (_NVMOperation)
/home/opt/microchip/xc32/v1.00/bin/../lib/gcc/pic32mx/4.5.1/../../../../pic32mx/lib/libmchp_peripheral_32MX440F128H.a(nvm_write_word_lib.o)
                              build/default/debug/_ext/2118813141/FlashStorage.o (NVMWriteWord)
/home/opt/microchip/xc32/v1.00/bin/../lib/gcc/pic32mx/4.5.1/../../../../pic32mx/lib/libmchp_peripheral_32MX440F128H.a(port_set_pins_digital_out_lib.o)
                              build/default/debug/_ext/2118813141/LED.o (PORTSetPinsDigitalOut)
/home/opt/microchip/xc32/v1.00/bin/../lib/gcc/pic32mx/4.5.1/../../../../pic32mx/lib/libmchp_peripheral_32MX440F128H.a(port_clear_bits_lib.o)
                              build/default/debug/_ext/2118813141/LED.o (PORTClearBits)
/home/opt/microchip/xc32/v1.00/bin/../lib/gcc/pic32mx/4.5.1/../../../../pic32mx/lib/libmchp_peripheral_32MX440F128H.a(port_set_bits_lib.o)
                              build/default/debug/_ext/2118813141/LED.o (PORTSetBits)
/home/opt/microchip/xc32/v1.00/bin/../lib/gcc/pic32mx/4.5.1/../../../../pic32mx/lib/libmchp_peripheral_32MX440F128H.a(_ports_tbl_libp.o)
                              /home/opt/microchip/xc32/v1.00/bin/../lib/gcc/pic32mx/4.5.1/../../../../pic32mx/lib/libmchp_peripheral_32MX440F128H.a(port_set_pins_digital_out_lib.o) (PortRegTbl)
/home/opt/microchip/xc32/v1.00/bin/../lib/gcc/pic32mx/4.5.1/../../../../pic32mx/lib/libmchp_peripheral_32MX440F128H.a(uart_lib.o)
                              build/default/debug/_ext/2118813141/Bowler_UART_HAL.o (UARTEnable)

Allocating common symbols
Common symbol       size              file

pDst                0x4               build/default/debug/_ext/1487882678/usb_device.o
packetFifo          0x18              build/default/debug/_ext/711791526/CartesianController.o
control_signal_bitmap
                    0x4               build/default/debug/_ext/1487882678/usb_function_cdc.o
currentServo        0x4               build/default/debug/_ext/711791526/Servo.o
BDT                 0x80              build/default/debug/_ext/1487882678/usb_device.o
CtrlTrfData         0x40              build/default/debug/_ext/1487882678/usb_device.o
resetPosition       0x4               build/default/debug/_ext/1080174469/AbstractPID.o
MathCalculationVelocity
                    0x4               build/default/debug/_ext/1080174469/AbstractPID.o
lastValue           0x4               build/default/debug/_ext/711791526/Servo.o
cos120              0x4               build/default/debug/_ext/711791526/delta.o
USBDeviceState      0x4               build/default/debug/_ext/1487882678/usb_device.o
sqrt3               0x4               build/default/debug/_ext/711791526/delta.o
controlTransferState
                    0x1               build/default/debug/_ext/1487882678/usb_device.o
cdc_tx_len          0x2               build/default/debug/_ext/1487882678/usb_function_cdc.o
USBInMaxPacketSize  0x6               build/default/debug/_ext/1487882678/usb_device.o
pCDCSrc             0x4               build/default/debug/_ext/1487882678/usb_function_cdc.o
intCartesian        0x30              build/default/debug/_ext/711791526/CartesianController.o
velData             0x4               build/default/debug/_ext/1080174469/AbstractPID.o
MathCalculationPosition
                    0x4               build/default/debug/_ext/1080174469/AbstractPID.o
position            0x20              build/default/debug/_ext/711791526/Servo.o
cdc_data_tx         0x40              build/default/debug/_ext/1487882678/usb_function_cdc.o
inPipes             0x7               build/default/debug/_ext/1487882678/usb_device.o
pBDTEntryIn         0x10              build/default/debug/_ext/1487882678/usb_device.o
overflow            0x2c              build/default/debug/_ext/711791526/AS5055.o
CDCDataOutHandle    0x4               build/default/debug/_ext/1487882678/usb_function_cdc.o
cdc_rx_len          0x2               build/default/debug/_ext/1487882678/usb_function_cdc.o
linTmpPack          0x10a             build/default/debug/_ext/711791526/CartesianController.o
line_coding         0x8               build/default/debug/_ext/1487882678/usb_function_cdc.o
state               0x4               build/default/debug/_ext/711791526/servoCalibration.o
lastXYZE            0x10              build/default/debug/_ext/711791526/CartesianController.o
onPidConfigure      0x4               build/default/debug/_ext/1080174469/AbstractPID.o
sin30               0x4               build/default/debug/_ext/711791526/delta.o
tmpData             0x10a             build/default/debug/_ext/711791526/Callbacks.o
sort                0x20              build/default/debug/_ext/711791526/Servo.o
buffer              0x2990            build/default/debug/_ext/711791526/CartesianController.o
BaudRateGen         0x4               build/default/debug/_ext/1487882678/usb_function_cdc.o
pBDTEntryOut        0x10              build/default/debug/_ext/1487882678/usb_device.o
CDCDataInHandle     0x4               build/default/debug/_ext/1487882678/usb_function_cdc.o
BothEP0OutUOWNsSet  0x4               build/default/debug/_ext/1487882678/usb_device.o
cdc_data_rx         0x40              build/default/debug/_ext/1487882678/usb_function_cdc.o
cdc_notice          0x8               build/default/debug/_ext/1487882678/usb_function_cdc.o
velocity            0x80              build/default/debug/_ext/711791526/Servo.o
pBDTEntryEP0OutNext
                    0x4               build/default/debug/_ext/1487882678/usb_device.o
nextServo           0x4               build/default/debug/_ext/711791526/Servo.o
nextValue           0x4               build/default/debug/_ext/711791526/Servo.o
flash               0x50              build/default/debug/_ext/2118813141/FlashStorage.o
raw                 0x2c              build/default/debug/_ext/711791526/AS5055.o
cdc_trf_state       0x1               build/default/debug/_ext/1487882678/usb_function_cdc.o
SetupPkt            0x8               build/default/debug/_ext/1487882678/usb_device.o
pidGroups           0x4               build/default/debug/_ext/1080174469/AbstractPID.o
pCDCDst             0x4               build/default/debug/_ext/1487882678/usb_function_cdc.o
cdc_mem_type        0x1               build/default/debug/_ext/1487882678/usb_function_cdc.o
setOutput           0x4               build/default/debug/_ext/1080174469/AbstractPID.o
heaterLowpass       0x10              build/default/debug/_ext/711791526/ForgeHeater.o
offset              0x2c              build/default/debug/_ext/711791526/AS5055.o
diff                0x4               build/default/debug/_ext/711791526/Servo.o
shortPacketStatus   0x1               build/default/debug/_ext/1487882678/usb_device.o
pBDTEntryEP0OutCurrent
                    0x4               build/default/debug/_ext/1487882678/usb_device.o
USBActiveConfiguration
                    0x1               build/default/debug/_ext/1487882678/usb_device.o
RemoteWakeup        0x4               build/default/debug/_ext/1487882678/usb_device.o
tan30               0x4               build/default/debug/_ext/711791526/delta.o
currentValue        0x4               build/default/debug/_ext/711791526/Servo.o
pi                  0x4               build/default/debug/_ext/711791526/delta.o
sin120              0x4               build/default/debug/_ext/711791526/delta.o
USTATcopy           0x1               build/default/debug/_ext/1487882678/usb_device.o
heaterLowpassIndex  0x4               build/default/debug/_ext/711791526/ForgeHeater.o
USBInData           0xc               build/default/debug/_ext/1487882678/usb_device.o
USBAlternateInterface
                    0x1               build/default/debug/_ext/1487882678/usb_device.o
outPipes            0xb               build/default/debug/_ext/1487882678/usb_device.o
dummy_encapsulated_cmd_response
                    0x8               build/default/debug/_ext/1487882678/usb_function_cdc.o
tan60               0x4               build/default/debug/_ext/711791526/delta.o
packetTemp          0x10a             build/default/debug/_ext/711791526/CartesianController.o
getPosition         0x4               build/default/debug/_ext/1080174469/AbstractPID.o
checkPIDLimitEvents
                    0x4               build/default/debug/_ext/1080174469/AbstractPID.o

Microchip PIC32 Memory-Usage Report

kseg0 Program-Memory Usage
section                    address  length [bytes]      (dec)  Description
-------                 ----------  -------------------------  -----------
.text                   0x9d000008        0x1244c       74828  App's exec code 
.dinit                  0x9d012454          0x828        2088   
.text                   0x9d012c7c         0x21e0        8672  App's exec code 
.rodata                 0x9d014e5c          0xa58        2648  Read-only const 
.text                   0x9d0158b4         0x3218       12824  App's exec code 
.rodata                 0x9d018acc          0x308         776  Read-only const 
.text                   0x9d018dd4          0x37c         892  App's exec code 
.text._NVMOperation     0x9d019150          0x114         276   
.text                   0x9d019264          0x108         264  App's exec code 
.rodata                 0x9d01936c           0xf8         248  Read-only const 
.text                   0x9d019464           0xec         236  App's exec code 
.text.general_exception 0x9d019550           0xd0         208   
.text                   0x9d019620           0xc4         196  App's exec code 
.rodata                 0x9d0196e4          0x164         356  Read-only const 
.text                   0x9d019848          0x150         336  App's exec code 
.rodata                 0x9d019998          0x110         272  Read-only const 
.text.UARTEnable        0x9d019aa8           0x80         128   
.rodata                 0x9d019b28           0x68         104  Read-only const 
.text.OpenSPI2          0x9d019b90           0x60          96   
.rodata                 0x9d019bf0           0x5c          92  Read-only const 
.text.UARTSetDataRate   0x9d019c4c           0x5c          92   
.text.INTEnable         0x9d019ca8           0x58          88   
.rodata                 0x9d019d00           0xe8         232  Read-only const 
.text.sqrtf             0x9d019de8           0x4c          76   
.text                   0x9d019e34           0x48          72  App's exec code 
.rodata                 0x9d019e7c           0x8c         140  Read-only const 
.text.PORTSetPinsDigita 0x9d019f08           0x40          64   
.text.UARTGetDataRate   0x9d019f48           0x40          64   
.text.INTSetVectorPrior 0x9d019f88           0x3c          60   
.text.INTSetVectorSubPr 0x9d019fc4           0x3c          60   
.text.UARTConfigure     0x9d01a000           0x3c          60   
.text.UARTSetAddress    0x9d01a03c           0x3c          60   
.rodata                 0x9d01a078           0x70         112  Read-only const 
.text.UARTWatchForAddre 0x9d01a0e8           0x38          56   
.rodata                 0x9d01a120           0x34          52  Read-only const 
.text.INTEnableSystemMu 0x9d01a154           0x34          52   
.text.NVMWriteWord      0x9d01a188           0x34          52   
.text.INTGetVectorPrior 0x9d01a1bc           0x30          48   
.text.INTGetVectorSubPr 0x9d01a1ec           0x30          48   
.text.SpiChnGetC        0x9d01a21c           0x30          48   
.text.SpiChnPutC        0x9d01a24c           0x30          48   
.text.INTClearFlag      0x9d01a27c           0x2c          44   
.text.INTSetFlag        0x9d01a2a8           0x2c          44   
.text.INTGetFlag        0x9d01a2d4           0x2c          44   
.text.INTGetEnable      0x9d01a300           0x2c          44   
.text.NVMErasePage      0x9d01a32c           0x2c          44   
.rodata                 0x9d01a358           0x50          80  Read-only const 
.text.PORTClearBits     0x9d01a3a8           0x28          40   
.text.PORTSetBits       0x9d01a3d0           0x28          40   
.text.UARTSetFifoMode   0x9d01a3f8           0x28          40   
.text.UARTSetLineContro 0x9d01a420           0x28          40   
.rodata                 0x9d01a448           0x20          32  Read-only const 
.text.SpiChnReadC       0x9d01a468           0x20          32   
.text.SpiChnWriteC      0x9d01a488           0x20          32   
.rodata                 0x9d01a4a8           0x1c          28  Read-only const 
.text.INTRestoreInterru 0x9d01a4c4           0x1c          28   
.text.SpiChnBuffer      0x9d01a4e0           0x1c          28   
.rodata                 0x9d01a4fc           0x30          48  Read-only const 
.text                   0x9d01a52c           0x18          24  App's exec code 
.text.CheKseg0CacheOff  0x9d01a544           0x18          24   
.text.CheKseg0CacheOn   0x9d01a55c           0x18          24   
.rodata                 0x9d01a574           0x14          20  Read-only const 
.text                   0x9d01a588           0x10          16  App's exec code 
.rodata                 0x9d01a598            0xc          12  Read-only const 
.text._bootstrap_except 0x9d01a5a4            0xc          12   
.text._on_reset         0x9d01a5b0            0x8           8   
.text._on_bootstrap     0x9d01a5b8            0x8           8   
.text.INTEnableInterrup 0x9d01a5c0            0x8           8   
.text.INTDisableInterru 0x9d01a5c8            0x8           8   
.rodata                 0x9d01a5d0            0xc          12  Read-only const 
      Total kseg0_program_mem used  :     0x1a5d4      107988  82.4% of 0x20000

kseg0 Boot-Memory Usage
section                    address  length [bytes]      (dec)  Description
-------                 ----------  -------------------------  -----------
         Total kseg0_boot_mem used  :           0           0  <1% of 0x970

Exception-Memory Usage 
section                    address  length [bytes]      (dec)  Description
-------                 ----------  -------------------------  -----------
.app_excpt              0x9fc01180           0x10          16  General-Exception 
.vector_4               0x9fc01280            0x8           8  Interrupt Vector 4 
.vector_8               0x9fc01300            0x8           8  Interrupt Vector 8 
.vector_12              0x9fc01380            0x8           8  Interrupt Vector 12 
.vector_19              0x9fc01460            0x8           8  Interrupt Vector 19 
.vector_24              0x9fc01500            0x8           8  Interrupt Vector 24 
.vector_45              0x9fc017a0            0x8           8  Interrupt Vector 45 
          Total exception_mem used  :        0x40          64  1.6% of 0x1000

kseg1 Boot-Memory Usage
section                    address  length [bytes]      (dec)  Description
-------                 ----------  -------------------------  -----------
.reset                  0xbfc00000          0x1f4         500  Reset handler 
.bev_excpt              0xbfc00380           0x10          16  BEV-Exception 
         Total kseg1_boot_mem used  :       0x204         516  44.2% of 0x490
        --------------------------------------------------------------------------
         Total Program Memory used  :     0x1a818      108568  78.2% of 0x21e00
        --------------------------------------------------------------------------


kseg1 Data-Memory Usage
section                    address  length [bytes]      (dec)  Description
-------                 ----------  -------------------------  -----------
.sdata                  0xa0000200           0xd8         216  Small init data 
.sbss                   0xa00002d8          0x190         400  Small uninit data 
.data                   0xa0000468          0x178         376  Initialized data 
.bss                    0xa00005e0           0x10          16  Uninitialized data 
.data.math_errhandling_ 0xa00005f0            0x4           4   
.bss                    0xa0000600         0x31a8       12712  Uninitialized data 
.bss                    0xa00037a8         0x12c4        4804  Uninitialized data 
.bss                    0xa0004a6c          0x270         624  Uninitialized data 
.data                   0xa0004cdc          0x204         516  Initialized data 
.bss                    0xa0004ee0           0x80         128  Uninitialized data 
.data                   0xa0004f60           0xfc         252  Initialized data 
         Total kseg1_data_mem used  :      0x4e50       20048  61.2% of 0x8000
        --------------------------------------------------------------------------
            Total Data Memory used  :      0x4e50       20048  61.2% of 0x8000
        --------------------------------------------------------------------------


Dynamic Data-Memory Reservation
section                    address  length [bytes]      (dec)  Description
-------                 ----------  -------------------------  -----------
heap                    0xa0005060              0           0  Reserved for heap 
stack                   0xa0005078         0x2f78       12152  Reserved for stack 

        --------------------------------------------------------------------------

Discarded input sections

 .reginfo       0x00000000       0x18 /home/opt/microchip/xc32/v1.00/bin/../lib/gcc/pic32mx/4.5.1/../../../../pic32mx/lib/crt0.o
 .pdr           0x00000000       0xa0 /home/opt/microchip/xc32/v1.00/bin/../lib/gcc/pic32mx/4.5.1/../../../../pic32mx/lib/crt0.o
 .reginfo       0x00000000       0x18 build/default/debug/_ext/1487882678/usb_descriptors.o
 .pdr           0x00000000       0x60 build/default/debug/_ext/1487882678/usb_descriptors.o
 .reginfo       0x00000000       0x18 build/default/debug/_ext/1487882678/usb_function_cdc.o
 .pdr           0x00000000      0x100 build/default/debug/_ext/1487882678/usb_function_cdc.o
 .reginfo       0x00000000       0x18 build/default/debug/_ext/1487882678/usb_fifo.o
 .pdr           0x00000000      0x180 build/default/debug/_ext/1487882678/usb_fifo.o
 .reginfo       0x00000000       0x18 build/default/debug/_ext/1487882678/usb_callback.o
 .pdr           0x00000000      0x140 build/default/debug/_ext/1487882678/usb_callback.o
 .reginfo       0x00000000       0x18 build/default/debug/_ext/1487882678/usb_interrupt.o
 .pdr           0x00000000        0x0 build/default/debug/_ext/1487882678/usb_interrupt.o
 .reginfo       0x00000000       0x18 build/default/debug/_ext/1487882678/usb_device.o
 .pdr           0x00000000      0x360 build/default/debug/_ext/1487882678/usb_device.o
 .reginfo       0x00000000       0x18 build/default/debug/_ext/2118813141/Delay.o
 .pdr           0x00000000       0xa0 build/default/debug/_ext/2118813141/Delay.o
 .reginfo       0x00000000       0x18 build/default/debug/_ext/2118813141/FlashStorage.o
 .pdr           0x00000000      0x140 build/default/debug/_ext/2118813141/FlashStorage.o
 .reginfo       0x00000000       0x18 build/default/debug/_ext/2118813141/HAL_P32.o
 .pdr           0x00000000      0x140 build/default/debug/_ext/2118813141/HAL_P32.o
 .reginfo       0x00000000       0x18 build/default/debug/_ext/2118813141/LED.o
 .pdr           0x00000000       0xa0 build/default/debug/_ext/2118813141/LED.o
 .reginfo       0x00000000       0x18 build/default/debug/_ext/2118813141/Tick.o
 .pdr           0x00000000      0x100 build/default/debug/_ext/2118813141/Tick.o
 .reginfo       0x00000000       0x18 build/default/debug/_ext/2118813141/Bowler_UART_HAL.o
 .pdr           0x00000000      0x180 build/default/debug/_ext/2118813141/Bowler_UART_HAL.o
 .reginfo       0x00000000       0x18 build/default/debug/_ext/2118813141/UART.o
 .pdr           0x00000000       0x40 build/default/debug/_ext/2118813141/UART.o
 .reginfo       0x00000000       0x18 build/default/debug/_ext/2118813141/ADC.o
 .pdr           0x00000000       0x60 build/default/debug/_ext/2118813141/ADC.o
 .reginfo       0x00000000       0x18 build/default/debug/_ext/2118813141/Bowler_USB_HAL.o
 .pdr           0x00000000       0x60 build/default/debug/_ext/2118813141/Bowler_USB_HAL.o
 .reginfo       0x00000000       0x18 build/default/debug/_ext/1080174469/Bowler_Helper.o
 .pdr           0x00000000      0x1e0 build/default/debug/_ext/1080174469/Bowler_Helper.o
 .reginfo       0x00000000       0x18 build/default/debug/_ext/1080174469/AbstractPID.o
 .pdr           0x00000000      0x4a0 build/default/debug/_ext/1080174469/AbstractPID.o
 .reginfo       0x00000000       0x18 build/default/debug/_ext/1080174469/Bowler_Stack_Callback.o
 .pdr           0x00000000        0x0 build/default/debug/_ext/1080174469/Bowler_Stack_Callback.o
 .reginfo       0x00000000       0x18 build/default/debug/_ext/1080174469/FIFO.o
 .pdr           0x00000000      0x220 build/default/debug/_ext/1080174469/FIFO.o
 .reginfo       0x00000000       0x18 build/default/debug/_ext/1080174469/Bowler_RPC_Process.o
 .pdr           0x00000000       0x40 build/default/debug/_ext/1080174469/Bowler_RPC_Process.o
 .reginfo       0x00000000       0x18 build/default/debug/_ext/1080174469/Bowler_Transport.o
 .pdr           0x00000000      0x100 build/default/debug/_ext/1080174469/Bowler_Transport.o
 .reginfo       0x00000000       0x18 build/default/debug/_ext/1080174469/Debug.o
 .pdr           0x00000000      0x220 build/default/debug/_ext/1080174469/Debug.o
 .reginfo       0x00000000       0x18 build/default/debug/_ext/1080174469/Scheduler.o
 .pdr           0x00000000       0x20 build/default/debug/_ext/1080174469/Scheduler.o
 .reginfo       0x00000000       0x18 build/default/debug/_ext/1080174469/Bowler_Server.o
 .pdr           0x00000000       0x80 build/default/debug/_ext/1080174469/Bowler_Server.o
 .reginfo       0x00000000       0x18 build/default/debug/_ext/1080174469/Namespace_bcs_core.o
 .pdr           0x00000000      0x160 build/default/debug/_ext/1080174469/Namespace_bcs_core.o
 .reginfo       0x00000000       0x18 build/default/debug/_ext/1080174469/Namespace_bcs_pid.o
 .pdr           0x00000000       0x40 build/default/debug/_ext/1080174469/Namespace_bcs_pid.o
 .reginfo       0x00000000       0x18 build/default/debug/_ext/1080174469/Namespace_bcs_rpc.o
 .pdr           0x00000000       0x60 build/default/debug/_ext/1080174469/Namespace_bcs_rpc.o
 .reginfo       0x00000000       0x18 build/default/debug/_ext/711791526/SPIClient.o
 .pdr           0x00000000       0x40 build/default/debug/_ext/711791526/SPIClient.o
 .reginfo       0x00000000       0x18 build/default/debug/_ext/711791526/main.o
 .pdr           0x00000000       0xc0 build/default/debug/_ext/711791526/main.o
 .reginfo       0x00000000       0x18 build/default/debug/_ext/711791526/Callbacks.o
 .pdr           0x00000000       0x60 build/default/debug/_ext/711791526/Callbacks.o
 .reginfo       0x00000000       0x18 build/default/debug/_ext/711791526/UpstreamPackets.o
 .pdr           0x00000000       0x60 build/default/debug/_ext/711791526/UpstreamPackets.o
 .reginfo       0x00000000       0x18 build/default/debug/_ext/711791526/AS5055.o
 .pdr           0x00000000      0x180 build/default/debug/_ext/711791526/AS5055.o
 .reginfo       0x00000000       0x18 build/default/debug/_ext/711791526/PID.o
 .pdr           0x00000000      0x160 build/default/debug/_ext/711791526/PID.o
 .reginfo       0x00000000       0x18 build/default/debug/_ext/711791526/Servo.o
 .pdr           0x00000000      0x200 build/default/debug/_ext/711791526/Servo.o
 .reginfo       0x00000000       0x18 build/default/debug/_ext/711791526/StepperSim.o
 .pdr           0x00000000       0x80 build/default/debug/_ext/711791526/StepperSim.o
 .reginfo       0x00000000       0x18 build/default/debug/_ext/711791526/ForgeHeater.o
 .pdr           0x00000000      0x100 build/default/debug/_ext/711791526/ForgeHeater.o
 .reginfo       0x00000000       0x18 build/default/debug/_ext/711791526/CartesianController.o
 .pdr           0x00000000      0x280 build/default/debug/_ext/711791526/CartesianController.o
 .reginfo       0x00000000       0x18 build/default/debug/_ext/711791526/DeltaKinematics.o
 .pdr           0x00000000        0x0 build/default/debug/_ext/711791526/DeltaKinematics.o
 .reginfo       0x00000000       0x18 build/default/debug/_ext/711791526/delta.o
 .pdr           0x00000000       0xa0 build/default/debug/_ext/711791526/delta.o
 .reginfo       0x00000000       0x18 build/default/debug/_ext/711791526/Calibration.o
 .pdr           0x00000000        0x0 build/default/debug/_ext/711791526/Calibration.o
 .reginfo       0x00000000       0x18 build/default/debug/_ext/711791526/MotionTest.o
 .pdr           0x00000000        0x0 build/default/debug/_ext/711791526/MotionTest.o
 .reginfo       0x00000000       0x18 build/default/debug/_ext/664674842/Namespace_bcs_cartesian.o
 .pdr           0x00000000       0x40 build/default/debug/_ext/664674842/Namespace_bcs_cartesian.o
 .reginfo       0x00000000       0x18 build/default/debug/_ext/711791526/servoCalibration.o
 .pdr           0x00000000      0x100 build/default/debug/_ext/711791526/servoCalibration.o
 .reginfo       0x00000000       0x18 /home/opt/microchip/xc32/v1.00/bin/../lib/gcc/pic32mx/4.5.1/libgcc.a(floatunsisf.o)
 .pdr           0x00000000       0x20 /home/opt/microchip/xc32/v1.00/bin/../lib/gcc/pic32mx/4.5.1/libgcc.a(floatunsisf.o)
 .reginfo       0x00000000       0x18 /home/opt/microchip/xc32/v1.00/bin/../lib/gcc/pic32mx/4.5.1/../../../../pic32mx/lib/libc.a(memset.o)
 .pdr           0x00000000       0x20 /home/opt/microchip/xc32/v1.00/bin/../lib/gcc/pic32mx/4.5.1/../../../../pic32mx/lib/libc.a(memset.o)
 .reginfo       0x00000000       0x18 /home/opt/microchip/xc32/v1.00/bin/../lib/gcc/pic32mx/4.5.1/../../../../pic32mx/lib/libc.a(general-exception.o)
 .pdr           0x00000000       0x20 /home/opt/microchip/xc32/v1.00/bin/../lib/gcc/pic32mx/4.5.1/../../../../pic32mx/lib/libc.a(general-exception.o)
 .reginfo       0x00000000       0x18 /home/opt/microchip/xc32/v1.00/bin/../lib/gcc/pic32mx/4.5.1/../../../../pic32mx/lib/libc.a(default-bootstrap-exception-handler.o)
 .pdr           0x00000000       0x20 /home/opt/microchip/xc32/v1.00/bin/../lib/gcc/pic32mx/4.5.1/../../../../pic32mx/lib/libc.a(default-bootstrap-exception-handler.o)
 .reginfo       0x00000000       0x18 /home/opt/microchip/xc32/v1.00/bin/../lib/gcc/pic32mx/4.5.1/../../../../pic32mx/lib/libc.a(default-on-reset.o)
 .pdr           0x00000000       0x20 /home/opt/microchip/xc32/v1.00/bin/../lib/gcc/pic32mx/4.5.1/../../../../pic32mx/lib/libc.a(default-on-reset.o)
 .reginfo       0x00000000       0x18 /home/opt/microchip/xc32/v1.00/bin/../lib/gcc/pic32mx/4.5.1/../../../../pic32mx/lib/libc.a(default-on-bootstrap.o)
 .pdr           0x00000000       0x20 /home/opt/microchip/xc32/v1.00/bin/../lib/gcc/pic32mx/4.5.1/../../../../pic32mx/lib/libc.a(default-on-bootstrap.o)
 .reginfo       0x00000000       0x18 /home/opt/microchip/xc32/v1.00/bin/../lib/gcc/pic32mx/4.5.1/../../../../pic32mx/lib/libc.a(default-nmi-handler.o)
 .pdr           0x00000000       0x20 /home/opt/microchip/xc32/v1.00/bin/../lib/gcc/pic32mx/4.5.1/../../../../pic32mx/lib/libc.a(default-nmi-handler.o)
 .reginfo       0x00000000       0x18 /home/opt/microchip/xc32/v1.00/bin/../lib/gcc/pic32mx/4.5.1/../../../../pic32mx/lib/libm.a(fparc32.o)
 .pdr           0x00000000        0x0 /home/opt/microchip/xc32/v1.00/bin/../lib/gcc/pic32mx/4.5.1/../../../../pic32mx/lib/libm.a(fparc32.o)
 .reginfo       0x00000000       0x18 /home/opt/microchip/xc32/v1.00/bin/../lib/gcc/pic32mx/4.5.1/../../../../pic32mx/lib/libm.a(fpsqrt32.o)
 .pdr           0x00000000        0x0 /home/opt/microchip/xc32/v1.00/bin/../lib/gcc/pic32mx/4.5.1/../../../../pic32mx/lib/libm.a(fpsqrt32.o)
 .reginfo       0x00000000       0x18 /home/opt/microchip/xc32/v1.00/bin/../lib/gcc/pic32mx/4.5.1/../../../../pic32mx/lib/libm.a(w_sqrtf.o)
 .pdr           0x00000000       0x20 /home/opt/microchip/xc32/v1.00/bin/../lib/gcc/pic32mx/4.5.1/../../../../pic32mx/lib/libm.a(w_sqrtf.o)
 .reginfo       0x00000000       0x18 /home/opt/microchip/xc32/v1.00/bin/../lib/gcc/pic32mx/4.5.1/../../../../pic32mx/lib/libm.a(fp32.o)
 .pdr           0x00000000        0x0 /home/opt/microchip/xc32/v1.00/bin/../lib/gcc/pic32mx/4.5.1/../../../../pic32mx/lib/libm.a(fp32.o)
 .reginfo       0x00000000       0x18 /home/opt/microchip/xc32/v1.00/bin/../lib/gcc/pic32mx/4.5.1/../../../../pic32mx/lib/libm.a(fpcos32.o)
 .pdr           0x00000000        0x0 /home/opt/microchip/xc32/v1.00/bin/../lib/gcc/pic32mx/4.5.1/../../../../pic32mx/lib/libm.a(fpcos32.o)
 .reginfo       0x00000000       0x18 /home/opt/microchip/xc32/v1.00/bin/../lib/gcc/pic32mx/4.5.1/../../../../pic32mx/lib/libm.a(fpsin32.o)
 .pdr           0x00000000        0x0 /home/opt/microchip/xc32/v1.00/bin/../lib/gcc/pic32mx/4.5.1/../../../../pic32mx/lib/libm.a(fpsin32.o)
 .reginfo       0x00000000       0x18 /home/opt/microchip/xc32/v1.00/bin/../lib/gcc/pic32mx/4.5.1/../../../../pic32mx/lib/libm.a(fpreduct32.o)
 .pdr           0x00000000        0x0 /home/opt/microchip/xc32/v1.00/bin/../lib/gcc/pic32mx/4.5.1/../../../../pic32mx/lib/libm.a(fpreduct32.o)
 .reginfo       0x00000000       0x18 /home/opt/microchip/xc32/v1.00/bin/../lib/gcc/pic32mx/4.5.1/../../../../pic32mx/lib/libm.a(sincof32.o)
 .pdr           0x00000000        0x0 /home/opt/microchip/xc32/v1.00/bin/../lib/gcc/pic32mx/4.5.1/../../../../pic32mx/lib/libm.a(sincof32.o)
 .reginfo       0x00000000       0x18 /home/opt/microchip/xc32/v1.00/bin/../lib/gcc/pic32mx/4.5.1/../../../../pic32mx/lib/libm.a(s_lib_ver.o)
 .pdr           0x00000000        0x0 /home/opt/microchip/xc32/v1.00/bin/../lib/gcc/pic32mx/4.5.1/../../../../pic32mx/lib/libm.a(s_lib_ver.o)
 .reginfo       0x00000000       0x18 /home/opt/microchip/xc32/v1.00/bin/../lib/gcc/pic32mx/4.5.1/../../../../pic32mx/lib/libc.a(errno.o)
 .pdr           0x00000000        0x0 /home/opt/microchip/xc32/v1.00/bin/../lib/gcc/pic32mx/4.5.1/../../../../pic32mx/lib/libc.a(errno.o)
 .reginfo       0x00000000       0x18 /home/opt/microchip/xc32/v1.00/bin/../lib/gcc/pic32mx/4.5.1/../../../../pic32mx/lib/./proc/32MX440F128H/processor.o
 .pdr           0x00000000        0x0 /home/opt/microchip/xc32/v1.00/bin/../lib/gcc/pic32mx/4.5.1/../../../../pic32mx/lib/./proc/32MX440F128H/processor.o
 .reginfo       0x00000000       0x18 /home/opt/microchip/xc32/v1.00/bin/../lib/gcc/pic32mx/4.5.1/../../../../pic32mx/lib/libmchp_peripheral_32MX440F128H.a(pcache.o)
 .pdr           0x00000000       0x40 /home/opt/microchip/xc32/v1.00/bin/../lib/gcc/pic32mx/4.5.1/../../../../pic32mx/lib/libmchp_peripheral_32MX440F128H.a(pcache.o)
 .reginfo       0x00000000       0x18 /home/opt/microchip/xc32/v1.00/bin/../lib/gcc/pic32mx/4.5.1/../../../../pic32mx/lib/libmchp_peripheral_32MX440F128H.a(int_enable_interrupts_lib.o)
 .pdr           0x00000000       0x20 /home/opt/microchip/xc32/v1.00/bin/../lib/gcc/pic32mx/4.5.1/../../../../pic32mx/lib/libmchp_peripheral_32MX440F128H.a(int_enable_interrupts_lib.o)
 .reginfo       0x00000000       0x18 /home/opt/microchip/xc32/v1.00/bin/../lib/gcc/pic32mx/4.5.1/../../../../pic32mx/lib/libmchp_peripheral_32MX440F128H.a(int_disable_interrupts_lib.o)
 .pdr           0x00000000       0x20 /home/opt/microchip/xc32/v1.00/bin/../lib/gcc/pic32mx/4.5.1/../../../../pic32mx/lib/libmchp_peripheral_32MX440F128H.a(int_disable_interrupts_lib.o)
 .reginfo       0x00000000       0x18 /home/opt/microchip/xc32/v1.00/bin/../lib/gcc/pic32mx/4.5.1/../../../../pic32mx/lib/libmchp_peripheral_32MX440F128H.a(int_restore_interrupts_lib.o)
 .pdr           0x00000000       0x20 /home/opt/microchip/xc32/v1.00/bin/../lib/gcc/pic32mx/4.5.1/../../../../pic32mx/lib/libmchp_peripheral_32MX440F128H.a(int_restore_interrupts_lib.o)
 .reginfo       0x00000000       0x18 /home/opt/microchip/xc32/v1.00/bin/../lib/gcc/pic32mx/4.5.1/../../../../pic32mx/lib/libmchp_peripheral_32MX440F128H.a(int_enable_mv_int_lib.o)
 .pdr           0x00000000       0x20 /home/opt/microchip/xc32/v1.00/bin/../lib/gcc/pic32mx/4.5.1/../../../../pic32mx/lib/libmchp_peripheral_32MX440F128H.a(int_enable_mv_int_lib.o)
 .reginfo       0x00000000       0x18 /home/opt/microchip/xc32/v1.00/bin/../lib/gcc/pic32mx/4.5.1/../../../../pic32mx/lib/libmchp_peripheral_32MX440F128H.a(int_tbl_lib.o)
 .pdr           0x00000000      0x120 /home/opt/microchip/xc32/v1.00/bin/../lib/gcc/pic32mx/4.5.1/../../../../pic32mx/lib/libmchp_peripheral_32MX440F128H.a(int_tbl_lib.o)
 .reginfo       0x00000000       0x18 /home/opt/microchip/xc32/v1.00/bin/../lib/gcc/pic32mx/4.5.1/../../../../pic32mx/lib/libmchp_peripheral_32MX440F128H.a(spi_chn_getc_lib.o)
 .pdr           0x00000000       0x40 /home/opt/microchip/xc32/v1.00/bin/../lib/gcc/pic32mx/4.5.1/../../../../pic32mx/lib/libmchp_peripheral_32MX440F128H.a(spi_chn_getc_lib.o)
 .reginfo       0x00000000       0x18 /home/opt/microchip/xc32/v1.00/bin/../lib/gcc/pic32mx/4.5.1/../../../../pic32mx/lib/libmchp_peripheral_32MX440F128H.a(spi_chn_putc_lib.o)
 .pdr           0x00000000       0x60 /home/opt/microchip/xc32/v1.00/bin/../lib/gcc/pic32mx/4.5.1/../../../../pic32mx/lib/libmchp_peripheral_32MX440F128H.a(spi_chn_putc_lib.o)
 .reginfo       0x00000000       0x18 /home/opt/microchip/xc32/v1.00/bin/../lib/gcc/pic32mx/4.5.1/../../../../pic32mx/lib/libmchp_peripheral_32MX440F128H.a(spi_map_tbl_libp.o)
 .pdr           0x00000000        0x0 /home/opt/microchip/xc32/v1.00/bin/../lib/gcc/pic32mx/4.5.1/../../../../pic32mx/lib/libmchp_peripheral_32MX440F128H.a(spi_map_tbl_libp.o)
 .reginfo       0x00000000       0x18 /home/opt/microchip/xc32/v1.00/bin/../lib/gcc/pic32mx/4.5.1/../../../../pic32mx/lib/libmchp_peripheral_32MX440F128H.a(spi_open_spi2_lib_legacy.o)
 .pdr           0x00000000       0x20 /home/opt/microchip/xc32/v1.00/bin/../lib/gcc/pic32mx/4.5.1/../../../../pic32mx/lib/libmchp_peripheral_32MX440F128H.a(spi_open_spi2_lib_legacy.o)
 .reginfo       0x00000000       0x18 /home/opt/microchip/xc32/v1.00/bin/../lib/gcc/pic32mx/4.5.1/../../../../pic32mx/lib/libmchp_peripheral_32MX440F128H.a(spi_brg_tbl_lib_legacy.o)
 .pdr           0x00000000        0x0 /home/opt/microchip/xc32/v1.00/bin/../lib/gcc/pic32mx/4.5.1/../../../../pic32mx/lib/libmchp_peripheral_32MX440F128H.a(spi_brg_tbl_lib_legacy.o)
 .reginfo       0x00000000       0x18 /home/opt/microchip/xc32/v1.00/bin/../lib/gcc/pic32mx/4.5.1/../../../../pic32mx/lib/libmchp_peripheral_32MX440F128H.a(nvm_erase_page_lib.o)
 .pdr           0x00000000       0x20 /home/opt/microchip/xc32/v1.00/bin/../lib/gcc/pic32mx/4.5.1/../../../../pic32mx/lib/libmchp_peripheral_32MX440F128H.a(nvm_erase_page_lib.o)
 .reginfo       0x00000000       0x18 /home/opt/microchip/xc32/v1.00/bin/../lib/gcc/pic32mx/4.5.1/../../../../pic32mx/lib/libmchp_peripheral_32MX440F128H.a(nvm_operation_lib.o)
 .pdr           0x00000000       0x20 /home/opt/microchip/xc32/v1.00/bin/../lib/gcc/pic32mx/4.5.1/../../../../pic32mx/lib/libmchp_peripheral_32MX440F128H.a(nvm_operation_lib.o)
 .reginfo       0x00000000       0x18 /home/opt/microchip/xc32/v1.00/bin/../lib/gcc/pic32mx/4.5.1/../../../../pic32mx/lib/libmchp_peripheral_32MX440F128H.a(nvm_write_word_lib.o)
 .pdr           0x00000000       0x20 /home/opt/microchip/xc32/v1.00/bin/../lib/gcc/pic32mx/4.5.1/../../../../pic32mx/lib/libmchp_peripheral_32MX440F128H.a(nvm_write_word_lib.o)
 .reginfo       0x00000000       0x18 /home/opt/microchip/xc32/v1.00/bin/../lib/gcc/pic32mx/4.5.1/../../../../pic32mx/lib/libmchp_peripheral_32MX440F128H.a(port_set_pins_digital_out_lib.o)
 .pdr           0x00000000       0x20 /home/opt/microchip/xc32/v1.00/bin/../lib/gcc/pic32mx/4.5.1/../../../../pic32mx/lib/libmchp_peripheral_32MX440F128H.a(port_set_pins_digital_out_lib.o)
 .reginfo       0x00000000       0x18 /home/opt/microchip/xc32/v1.00/bin/../lib/gcc/pic32mx/4.5.1/../../../../pic32mx/lib/libmchp_peripheral_32MX440F128H.a(port_clear_bits_lib.o)
 .pdr           0x00000000       0x20 /home/opt/microchip/xc32/v1.00/bin/../lib/gcc/pic32mx/4.5.1/../../../../pic32mx/lib/libmchp_peripheral_32MX440F128H.a(port_clear_bits_lib.o)
 .reginfo       0x00000000       0x18 /home/opt/microchip/xc32/v1.00/bin/../lib/gcc/pic32mx/4.5.1/../../../../pic32mx/lib/libmchp_peripheral_32MX440F128H.a(port_set_bits_lib.o)
 .pdr           0x00000000       0x20 /home/opt/microchip/xc32/v1.00/bin/../lib/gcc/pic32mx/4.5.1/../../../../pic32mx/lib/libmchp_peripheral_32MX440F128H.a(port_set_bits_lib.o)
 .reginfo       0x00000000       0x18 /home/opt/microchip/xc32/v1.00/bin/../lib/gcc/pic32mx/4.5.1/../../../../pic32mx/lib/libmchp_peripheral_32MX440F128H.a(_ports_tbl_libp.o)
 .pdr           0x00000000        0x0 /home/opt/microchip/xc32/v1.00/bin/../lib/gcc/pic32mx/4.5.1/../../../../pic32mx/lib/libmchp_peripheral_32MX440F128H.a(_ports_tbl_libp.o)
 .reginfo       0x00000000       0x18 /home/opt/microchip/xc32/v1.00/bin/../lib/gcc/pic32mx/4.5.1/../../../../pic32mx/lib/libmchp_peripheral_32MX440F128H.a(uart_lib.o)
 .pdr           0x00000000      0x100 /home/opt/microchip/xc32/v1.00/bin/../lib/gcc/pic32mx/4.5.1/../../../../pic32mx/lib/libmchp_peripheral_32MX440F128H.a(uart_lib.o)

Memory Configuration

Name             Origin             Length             Attributes
kseg0_program_mem 0x9d000000         0x00020000         xr
kseg0_boot_mem   0x9fc00490         0x00000970
exception_mem    0x9fc01000         0x00001000
kseg1_boot_mem   0xbfc00000         0x00000490
debug_exec_mem   0xbfc02000         0x00000ff0
config3          0xbfc02ff0         0x00000004
config2          0xbfc02ff4         0x00000004
config1          0xbfc02ff8         0x00000004
config0          0xbfc02ffc         0x00000004
kseg1_data_mem   0xa0000000         0x00008000         w !x
sfrs             0xbf800000         0x00100000
configsfrs       0xbfc02ff0         0x00000010
*default*        0x00000000         0xffffffff

Linker script and memory map

LOAD /home/opt/microchip/xc32/v1.00/bin/../lib/gcc/pic32mx/4.5.1/../../../../pic32mx/lib/crt0.o
                0x00000001                _DEBUGGER = 0x1
LOAD build/default/debug/_ext/1487882678/usb_descriptors.o
LOAD build/default/debug/_ext/1487882678/usb_function_cdc.o
LOAD build/default/debug/_ext/1487882678/usb_fifo.o
LOAD build/default/debug/_ext/1487882678/usb_callback.o
LOAD build/default/debug/_ext/1487882678/usb_interrupt.o
LOAD build/default/debug/_ext/1487882678/usb_device.o
LOAD build/default/debug/_ext/2118813141/Delay.o
LOAD build/default/debug/_ext/2118813141/FlashStorage.o
LOAD build/default/debug/_ext/2118813141/HAL_P32.o
LOAD build/default/debug/_ext/2118813141/LED.o
LOAD build/default/debug/_ext/2118813141/Tick.o
LOAD build/default/debug/_ext/2118813141/Bowler_UART_HAL.o
LOAD build/default/debug/_ext/2118813141/UART.o
LOAD build/default/debug/_ext/2118813141/ADC.o
LOAD build/default/debug/_ext/2118813141/Bowler_USB_HAL.o
LOAD build/default/debug/_ext/1080174469/Bowler_Helper.o
LOAD build/default/debug/_ext/1080174469/AbstractPID.o
LOAD build/default/debug/_ext/1080174469/Bowler_Stack_Callback.o
LOAD build/default/debug/_ext/1080174469/FIFO.o
LOAD build/default/debug/_ext/1080174469/Bowler_RPC_Process.o
LOAD build/default/debug/_ext/1080174469/Bowler_Transport.o
LOAD build/default/debug/_ext/1080174469/Debug.o
LOAD build/default/debug/_ext/1080174469/Scheduler.o
LOAD build/default/debug/_ext/1080174469/Bowler_Server.o
LOAD build/default/debug/_ext/1080174469/Namespace_bcs_core.o
LOAD build/default/debug/_ext/1080174469/Namespace_bcs_pid.o
LOAD build/default/debug/_ext/1080174469/Namespace_bcs_rpc.o
LOAD build/default/debug/_ext/711791526/SPIClient.o
LOAD build/default/debug/_ext/711791526/main.o
LOAD build/default/debug/_ext/711791526/Callbacks.o
LOAD build/default/debug/_ext/711791526/UpstreamPackets.o
LOAD build/default/debug/_ext/711791526/AS5055.o
LOAD build/default/debug/_ext/711791526/PID.o
LOAD build/default/debug/_ext/711791526/Servo.o
LOAD build/default/debug/_ext/711791526/StepperSim.o
LOAD build/default/debug/_ext/711791526/ForgeHeater.o
LOAD build/default/debug/_ext/711791526/CartesianController.o
LOAD build/default/debug/_ext/711791526/DeltaKinematics.o
LOAD build/default/debug/_ext/711791526/delta.o
LOAD build/default/debug/_ext/711791526/Calibration.o
LOAD build/default/debug/_ext/711791526/MotionTest.o
LOAD build/default/debug/_ext/664674842/Namespace_bcs_cartesian.o
LOAD build/default/debug/_ext/711791526/servoCalibration.o
                0x00000001                __MPLAB_BUILD = 0x1
                0x00000001                __ICD2RAM = 0x1
                0x00000001                __MPLAB_DEBUG = 0x1
                0x00000001                __DEBUG = 0x1
                0x00000001                __MPLAB_DEBUGGER_PK3 = 0x1
LOAD /home/opt/microchip/xc32/v1.00/bin/../lib/gcc/pic32mx/4.5.1/libgcc.a
START GROUP
LOAD /home/opt/microchip/xc32/v1.00/bin/../lib/gcc/pic32mx/4.5.1/../../../../pic32mx/lib/libdebug.a
LOAD /home/opt/microchip/xc32/v1.00/bin/../lib/gcc/pic32mx/4.5.1/../../../../pic32mx/lib/libc.a
LOAD /home/opt/microchip/xc32/v1.00/bin/../lib/gcc/pic32mx/4.5.1/../../../../pic32mx/lib/libm.a
LOAD /home/opt/microchip/xc32/v1.00/bin/../lib/gcc/pic32mx/4.5.1/../../../../pic32mx/lib/libe.a
LOAD /home/opt/microchip/xc32/v1.00/bin/../lib/gcc/pic32mx/4.5.1/../../../../pic32mx/lib/libdsp.a
END GROUP
LOAD /home/opt/microchip/xc32/v1.00/bin/../lib/gcc/pic32mx/4.5.1/libgcc.a
                0x00000400                PROVIDE (_min_stack_size, 0x400)
                0x00000000                PROVIDE (_min_heap_size, 0x0)
LOAD /home/opt/microchip/xc32/v1.00/bin/../lib/gcc/pic32mx/4.5.1/../../../../pic32mx/lib/./proc/32MX440F128H/processor.o
START GROUP
LOAD /home/opt/microchip/xc32/v1.00/bin/../lib/gcc/pic32mx/4.5.1/../../../../pic32mx/lib/libmchp_peripheral.a
END GROUP
START GROUP
LOAD /home/opt/microchip/xc32/v1.00/bin/../lib/gcc/pic32mx/4.5.1/../../../../pic32mx/lib/libmchp_peripheral_32MX440F128H.a
END GROUP
                0x00000001                PROVIDE (_vector_spacing, 0x1)
                0x9fc01000                _ebase_address = 0x9fc01000
                0xbfc00000                _RESET_ADDR = 0xbfc00000
                0xbfc00380                _BEV_EXCPT_ADDR = 0xbfc00380
                0xbfc00480                _DBG_EXCPT_ADDR = 0xbfc00480
                0xbfc02000                _DBG_CODE_ADDR = 0xbfc02000
                0x00000ff0                _DBG_CODE_SIZE = 0xff0
                0x9fc01180                _GEN_EXCPT_ADDR = (_ebase_address + 0x180)

.config_BFC02FF0
 *(.config_BFC02FF0)

.config_BFC02FF4
                0xbfc02ff4        0x4
 *(.config_BFC02FF4)
 .config_BFC02FF4
                0xbfc02ff4        0x4 build/default/debug/_ext/711791526/main.o

.config_BFC02FF8
                0xbfc02ff8        0x4
 *(.config_BFC02FF8)
 .config_BFC02FF8
                0xbfc02ff8        0x4 build/default/debug/_ext/711791526/main.o

.config_BFC02FFC
                0xbfc02ffc        0x4
 *(.config_BFC02FFC)
 .config_BFC02FFC
                0xbfc02ffc        0x4 build/default/debug/_ext/711791526/main.o
                0xbfc02000                PROVIDE (_DBG_CODE_ADDR, 0xbfc02000)
                0x00000ff0                PROVIDE (_DBG_CODE_SIZE, 0xff0)

.reset          0xbfc00000      0x1f4
 *(.reset)
 .reset         0xbfc00000       0x10 /home/opt/microchip/xc32/v1.00/bin/../lib/gcc/pic32mx/4.5.1/../../../../pic32mx/lib/crt0.o
                0xbfc00000                _reset
 *(.reset.startup)
 .reset.startup
                0xbfc00010      0x1e4 /home/opt/microchip/xc32/v1.00/bin/../lib/gcc/pic32mx/4.5.1/../../../../pic32mx/lib/crt0.o

.bev_excpt      0xbfc00380       0x10
 *(.bev_handler)
 .bev_handler   0xbfc00380       0x10 /home/opt/microchip/xc32/v1.00/bin/../lib/gcc/pic32mx/4.5.1/../../../../pic32mx/lib/crt0.o

.dbg_excpt      0xbfc00480        0x8
                0xbfc00480                . = (. + DEFINED (_DEBUGGER)?0x8:0x0)
 *fill*         0xbfc00480        0x8 00

.dbg_code       0xbfc02000      0xff0
                0xbfc02000                . = (. + DEFINED (_DEBUGGER)?_DBG_CODE_SIZE:0x0)
 *fill*         0xbfc02000      0xff0 00

.app_excpt      0x9fc01180       0x10
 *(.gen_handler)
 .gen_handler   0x9fc01180       0x10 /home/opt/microchip/xc32/v1.00/bin/../lib/gcc/pic32mx/4.5.1/../../../../pic32mx/lib/crt0.o

.vector_0       0x9fc01200        0x0
 *(.vector_0)
                0x00000001                ASSERT (((_vector_spacing == 0x0) || (SIZEOF (.vector_0) <= (_vector_spacing << 0x5))), function at exception vector 0 too large)

.vector_1       0x9fc01220        0x0
 *(.vector_1)
                0x00000001                ASSERT (((_vector_spacing == 0x0) || (SIZEOF (.vector_1) <= (_vector_spacing << 0x5))), function at exception vector 1 too large)

.vector_2       0x9fc01240        0x0
 *(.vector_2)
                0x00000001                ASSERT (((_vector_spacing == 0x0) || (SIZEOF (.vector_2) <= (_vector_spacing << 0x5))), function at exception vector 2 too large)

.vector_3       0x9fc01260        0x0
 *(.vector_3)
                0x00000001                ASSERT (((_vector_spacing == 0x0) || (SIZEOF (.vector_3) <= (_vector_spacing << 0x5))), function at exception vector 3 too large)

.vector_4       0x9fc01280        0x8
 *(.vector_4)
 .vector_4      0x9fc01280        0x8 build/default/debug/_ext/2118813141/Tick.o
                0x00000001                ASSERT (((_vector_spacing == 0x0) || (SIZEOF (.vector_4) <= (_vector_spacing << 0x5))), function at exception vector 4 too large)

.vector_5       0x9fc012a0        0x0
 *(.vector_5)
                0x00000001                ASSERT (((_vector_spacing == 0x0) || (SIZEOF (.vector_5) <= (_vector_spacing << 0x5))), function at exception vector 5 too large)

.vector_6       0x9fc012c0        0x0
 *(.vector_6)
                0x00000001                ASSERT (((_vector_spacing == 0x0) || (SIZEOF (.vector_6) <= (_vector_spacing << 0x5))), function at exception vector 6 too large)

.vector_7       0x9fc012e0        0x0
 *(.vector_7)
                0x00000001                ASSERT (((_vector_spacing == 0x0) || (SIZEOF (.vector_7) <= (_vector_spacing << 0x5))), function at exception vector 7 too large)

.vector_8       0x9fc01300        0x8
 *(.vector_8)
 .vector_8      0x9fc01300        0x8 build/default/debug/_ext/711791526/Servo.o
                0x00000001                ASSERT (((_vector_spacing == 0x0) || (SIZEOF (.vector_8) <= (_vector_spacing << 0x5))), function at exception vector 8 too large)

.vector_9       0x9fc01320        0x0
 *(.vector_9)
                0x00000001                ASSERT (((_vector_spacing == 0x0) || (SIZEOF (.vector_9) <= (_vector_spacing << 0x5))), function at exception vector 9 too large)

.vector_10      0x9fc01340        0x0
 *(.vector_10)
                0x00000001                ASSERT (((_vector_spacing == 0x0) || (SIZEOF (.vector_10) <= (_vector_spacing << 0x5))), function at exception vector 10 too large)

.vector_11      0x9fc01360        0x0
 *(.vector_11)
                0x00000001                ASSERT (((_vector_spacing == 0x0) || (SIZEOF (.vector_11) <= (_vector_spacing << 0x5))), function at exception vector 11 too large)

.vector_12      0x9fc01380        0x8
 *(.vector_12)
 .vector_12     0x9fc01380        0x8 build/default/debug/_ext/711791526/ForgeHeater.o
                0x00000001                ASSERT (((_vector_spacing == 0x0) || (SIZEOF (.vector_12) <= (_vector_spacing << 0x5))), function at exception vector 12 too large)

.vector_13      0x9fc013a0        0x0
 *(.vector_13)
                0x00000001                ASSERT (((_vector_spacing == 0x0) || (SIZEOF (.vector_13) <= (_vector_spacing << 0x5))), function at exception vector 13 too large)

.vector_14      0x9fc013c0        0x0
 *(.vector_14)
                0x00000001                ASSERT (((_vector_spacing == 0x0) || (SIZEOF (.vector_14) <= (_vector_spacing << 0x5))), function at exception vector 14 too large)

.vector_15      0x9fc013e0        0x0
 *(.vector_15)
                0x00000001                ASSERT (((_vector_spacing == 0x0) || (SIZEOF (.vector_15) <= (_vector_spacing << 0x5))), function at exception vector 15 too large)

.vector_16      0x9fc01400        0x0
 *(.vector_16)
                0x00000001                ASSERT (((_vector_spacing == 0x0) || (SIZEOF (.vector_16) <= (_vector_spacing << 0x5))), function at exception vector 16 too large)

.vector_17      0x9fc01420        0x0
 *(.vector_17)
                0x00000001                ASSERT (((_vector_spacing == 0x0) || (SIZEOF (.vector_17) <= (_vector_spacing << 0x5))), function at exception vector 17 too large)

.vector_18      0x9fc01440        0x0
 *(.vector_18)
                0x00000001                ASSERT (((_vector_spacing == 0x0) || (SIZEOF (.vector_18) <= (_vector_spacing << 0x5))), function at exception vector 18 too large)

.vector_19      0x9fc01460        0x8
 *(.vector_19)
 .vector_19     0x9fc01460        0x8 build/default/debug/_ext/711791526/StepperSim.o
                0x00000001                ASSERT (((_vector_spacing == 0x0) || (SIZEOF (.vector_19) <= (_vector_spacing << 0x5))), function at exception vector 19 too large)

.vector_20      0x9fc01480        0x0
 *(.vector_20)
                0x00000001                ASSERT (((_vector_spacing == 0x0) || (SIZEOF (.vector_20) <= (_vector_spacing << 0x5))), function at exception vector 20 too large)

.vector_21      0x9fc014a0        0x0
 *(.vector_21)
                0x00000001                ASSERT (((_vector_spacing == 0x0) || (SIZEOF (.vector_21) <= (_vector_spacing << 0x5))), function at exception vector 21 too large)

.vector_22      0x9fc014c0        0x0
 *(.vector_22)
                0x00000001                ASSERT (((_vector_spacing == 0x0) || (SIZEOF (.vector_22) <= (_vector_spacing << 0x5))), function at exception vector 22 too large)

.vector_23      0x9fc014e0        0x0
 *(.vector_23)
                0x00000001                ASSERT (((_vector_spacing == 0x0) || (SIZEOF (.vector_23) <= (_vector_spacing << 0x5))), function at exception vector 23 too large)

.vector_24      0x9fc01500        0x8
 *(.vector_24)
 .vector_24     0x9fc01500        0x8 build/default/debug/_ext/2118813141/Bowler_UART_HAL.o
                0x00000001                ASSERT (((_vector_spacing == 0x0) || (SIZEOF (.vector_24) <= (_vector_spacing << 0x5))), function at exception vector 24 too large)

.vector_25      0x9fc01520        0x0
 *(.vector_25)
                0x00000001                ASSERT (((_vector_spacing == 0x0) || (SIZEOF (.vector_25) <= (_vector_spacing << 0x5))), function at exception vector 25 too large)

.vector_26      0x9fc01540        0x0
 *(.vector_26)
                0x00000001                ASSERT (((_vector_spacing == 0x0) || (SIZEOF (.vector_26) <= (_vector_spacing << 0x5))), function at exception vector 26 too large)

.vector_27      0x9fc01560        0x0
 *(.vector_27)
                0x00000001                ASSERT (((_vector_spacing == 0x0) || (SIZEOF (.vector_27) <= (_vector_spacing << 0x5))), function at exception vector 27 too large)

.vector_28      0x9fc01580        0x0
 *(.vector_28)
                0x00000001                ASSERT (((_vector_spacing == 0x0) || (SIZEOF (.vector_28) <= (_vector_spacing << 0x5))), function at exception vector 28 too large)

.vector_29      0x9fc015a0        0x0
 *(.vector_29)
                0x00000001                ASSERT (((_vector_spacing == 0x0) || (SIZEOF (.vector_29) <= (_vector_spacing << 0x5))), function at exception vector 29 too large)

.vector_30      0x9fc015c0        0x0
 *(.vector_30)
                0x00000001                ASSERT (((_vector_spacing == 0x0) || (SIZEOF (.vector_30) <= (_vector_spacing << 0x5))), function at exception vector 30 too large)

.vector_31      0x9fc015e0        0x0
 *(.vector_31)
                0x00000001                ASSERT (((_vector_spacing == 0x0) || (SIZEOF (.vector_31) <= (_vector_spacing << 0x5))), function at exception vector 31 too large)

.vector_32      0x9fc01600        0x0
 *(.vector_32)
                0x00000001                ASSERT (((_vector_spacing == 0x0) || (SIZEOF (.vector_32) <= (_vector_spacing << 0x5))), function at exception vector 32 too large)

.vector_33      0x9fc01620        0x0
 *(.vector_33)
                0x00000001                ASSERT (((_vector_spacing == 0x0) || (SIZEOF (.vector_33) <= (_vector_spacing << 0x5))), function at exception vector 33 too large)

.vector_34      0x9fc01640        0x0
 *(.vector_34)
                0x00000001                ASSERT (((_vector_spacing == 0x0) || (SIZEOF (.vector_34) <= (_vector_spacing << 0x5))), function at exception vector 34 too large)

.vector_35      0x9fc01660        0x0
 *(.vector_35)
                0x00000001                ASSERT (((_vector_spacing == 0x0) || (SIZEOF (.vector_35) <= (_vector_spacing << 0x5))), function at exception vector 35 too large)

.vector_36      0x9fc01680        0x0
 *(.vector_36)
                0x00000001                ASSERT (((_vector_spacing == 0x0) || (SIZEOF (.vector_36) <= (_vector_spacing << 0x5))), function at exception vector 36 too large)

.vector_37      0x9fc016a0        0x0
 *(.vector_37)
                0x00000001                ASSERT (((_vector_spacing == 0x0) || (SIZEOF (.vector_37) <= (_vector_spacing << 0x5))), function at exception vector 37 too large)

.vector_38      0x9fc016c0        0x0
 *(.vector_38)
                0x00000001                ASSERT (((_vector_spacing == 0x0) || (SIZEOF (.vector_38) <= (_vector_spacing << 0x5))), function at exception vector 38 too large)

.vector_39      0x9fc016e0        0x0
 *(.vector_39)
                0x00000001                ASSERT (((_vector_spacing == 0x0) || (SIZEOF (.vector_39) <= (_vector_spacing << 0x5))), function at exception vector 39 too large)

.vector_40      0x9fc01700        0x0
 *(.vector_40)
                0x00000001                ASSERT (((_vector_spacing == 0x0) || (SIZEOF (.vector_40) <= (_vector_spacing << 0x5))), function at exception vector 40 too large)

.vector_41      0x9fc01720        0x0
 *(.vector_41)
                0x00000001                ASSERT (((_vector_spacing == 0x0) || (SIZEOF (.vector_41) <= (_vector_spacing << 0x5))), function at exception vector 41 too large)

.vector_42      0x9fc01740        0x0
 *(.vector_42)
                0x00000001                ASSERT (((_vector_spacing == 0x0) || (SIZEOF (.vector_42) <= (_vector_spacing << 0x5))), function at exception vector 42 too large)

.vector_43      0x9fc01760        0x0
 *(.vector_43)
                0x00000001                ASSERT (((_vector_spacing == 0x0) || (SIZEOF (.vector_43) <= (_vector_spacing << 0x5))), function at exception vector 43 too large)

.vector_44      0x9fc01780        0x0
 *(.vector_44)
                0x00000001                ASSERT (((_vector_spacing == 0x0) || (SIZEOF (.vector_44) <= (_vector_spacing << 0x5))), function at exception vector 44 too large)

.vector_45      0x9fc017a0        0x8
 *(.vector_45)
 .vector_45     0x9fc017a0        0x8 build/default/debug/_ext/1487882678/usb_device.o
                0x00000001                ASSERT (((_vector_spacing == 0x0) || (SIZEOF (.vector_45) <= (_vector_spacing << 0x5))), function at exception vector 45 too large)

.vector_46      0x9fc017c0        0x0
 *(.vector_46)
                0x00000001                ASSERT (((_vector_spacing == 0x0) || (SIZEOF (.vector_46) <= (_vector_spacing << 0x5))), function at exception vector 46 too large)

.vector_47      0x9fc017e0        0x0
 *(.vector_47)
                0x00000001                ASSERT (((_vector_spacing == 0x0) || (SIZEOF (.vector_47) <= (_vector_spacing << 0x5))), function at exception vector 47 too large)

.vector_48      0x9fc01800        0x0
 *(.vector_48)
                0x00000001                ASSERT (((_vector_spacing == 0x0) || (SIZEOF (.vector_48) <= (_vector_spacing << 0x5))), function at exception vector 48 too large)

.vector_49      0x9fc01820        0x0
 *(.vector_49)
                0x00000001                ASSERT (((_vector_spacing == 0x0) || (SIZEOF (.vector_49) <= (_vector_spacing << 0x5))), function at exception vector 49 too large)

.vector_50      0x9fc01840        0x0
 *(.vector_50)
                0x00000001                ASSERT (((_vector_spacing == 0x0) || (SIZEOF (.vector_50) <= (_vector_spacing << 0x5))), function at exception vector 50 too large)

.vector_51      0x9fc01860        0x0
 *(.vector_51)
                0x00000001                ASSERT (((_vector_spacing == 0x0) || (SIZEOF (.vector_51) <= (_vector_spacing << 0x5))), function at exception vector 51 too large)

.vector_52      0x9fc01880        0x0
 *(.vector_52)
                0x00000001                ASSERT (((_vector_spacing == 0x0) || (SIZEOF (.vector_52) <= (_vector_spacing << 0x5))), function at exception vector 52 too large)

.vector_53      0x9fc018a0        0x0
 *(.vector_53)
                0x00000001                ASSERT (((_vector_spacing == 0x0) || (SIZEOF (.vector_53) <= (_vector_spacing << 0x5))), function at exception vector 53 too large)

.vector_54      0x9fc018c0        0x0
 *(.vector_54)
                0x00000001                ASSERT (((_vector_spacing == 0x0) || (SIZEOF (.vector_54) <= (_vector_spacing << 0x5))), function at exception vector 54 too large)

.vector_55      0x9fc018e0        0x0
 *(.vector_55)
                0x00000001                ASSERT (((_vector_spacing == 0x0) || (SIZEOF (.vector_55) <= (_vector_spacing << 0x5))), function at exception vector 55 too large)

.vector_56      0x9fc01900        0x0
 *(.vector_56)
                0x00000001                ASSERT (((_vector_spacing == 0x0) || (SIZEOF (.vector_56) <= (_vector_spacing << 0x5))), function at exception vector 56 too large)

.vector_57      0x9fc01920        0x0
 *(.vector_57)
                0x00000001                ASSERT (((_vector_spacing == 0x0) || (SIZEOF (.vector_57) <= (_vector_spacing << 0x5))), function at exception vector 57 too large)

.vector_58      0x9fc01940        0x0
 *(.vector_58)
                0x00000001                ASSERT (((_vector_spacing == 0x0) || (SIZEOF (.vector_58) <= (_vector_spacing << 0x5))), function at exception vector 58 too large)

.vector_59      0x9fc01960        0x0
 *(.vector_59)
                0x00000001                ASSERT (((_vector_spacing == 0x0) || (SIZEOF (.vector_59) <= (_vector_spacing << 0x5))), function at exception vector 59 too large)

.vector_60      0x9fc01980        0x0
 *(.vector_60)
                0x00000001                ASSERT (((_vector_spacing == 0x0) || (SIZEOF (.vector_60) <= (_vector_spacing << 0x5))), function at exception vector 60 too large)

.vector_61      0x9fc019a0        0x0
 *(.vector_61)
                0x00000001                ASSERT (((_vector_spacing == 0x0) || (SIZEOF (.vector_61) <= (_vector_spacing << 0x5))), function at exception vector 61 too large)

.vector_62      0x9fc019c0        0x0
 *(.vector_62)
                0x00000001                ASSERT (((_vector_spacing == 0x0) || (SIZEOF (.vector_62) <= (_vector_spacing << 0x5))), function at exception vector 62 too large)

.vector_63      0x9fc019e0        0x0
 *(.vector_63)
                0x00000001                ASSERT (((_vector_spacing == 0x0) || (SIZEOF (.vector_63) <= (_vector_spacing << 0x5))), function at exception vector 63 too large)

.startup
 *(.startup)

.text
 *(.stub .gnu.linkonce.t.*)
 *(.text.*personality*)
 *(.mips16.fn.*)
 *(.mips16.call.*)
 *(.gnu.warning)

.rodata         0x9d000000        0x0
 *(.rodata.* .gnu.linkonce.r.*)
 *(.rodata1)
                0x9d000000                . = ALIGN (0x4)

.sdata2         0x9fc00490        0x0
 *(.sdata2 .sdata2.* .gnu.linkonce.s2.*)
                0x9fc00490                . = ALIGN (0x4)

.sbss2          0x9fc00490        0x0
 *(.sbss2 .sbss2.* .gnu.linkonce.sb2.*)
                0x9fc00490                . = ALIGN (0x4)

.eh_frame_hdr
 *(.eh_frame_hdr)

.eh_frame
 *(.eh_frame)

.dbg_data       0xa0000000      0x200
                0xa0000000                . = (. + DEFINED (_DEBUGGER)?0x200:0x0)
 *fill*         0xa0000000      0x200 00

.persist        0xa0000200        0x0
                0xa0000200                _persist_begin = .
 *(.persist .persist.*)
                0xa0000200                . = ALIGN (0x4)
                0xa0000200                _persist_end = .

.eh_frame
 *(.eh_frame)
                0xa0000200                . = .
                0xa00081f0                _gp = (ALIGN (0x10) + 0x7ff0)

.got
 *(.got.plt)
 *(.got)

.sdata          0xa0000200       0xd8
                0xa0000200                _sdata_begin = .
 *(.sdata .sdata.* .gnu.linkonce.s.*)
 .sdata         0xa0000200        0x8 build/default/debug/_ext/1487882678/usb_descriptors.o
                0xa0000200                sd000
                0xa0000204                USB_CD_Ptr
 .sdata         0xa0000208        0x4 build/default/debug/_ext/1487882678/usb_fifo.o
 .sdata         0xa000020c        0x8 build/default/debug/_ext/2118813141/FlashStorage.o
                0xa000020c                defMac
 .sdata         0xa0000214        0x4 build/default/debug/_ext/1080174469/AbstractPID.o
                0xa0000214                zone
 .sdata         0xa0000218        0x8 build/default/debug/_ext/1080174469/Bowler_Server.o
                0xa0000218                MyMAC
 .sdata         0xa0000220        0x8 build/default/debug/_ext/1080174469/Namespace_bcs_core.o
 .sdata         0xa0000228       0x4c build/default/debug/_ext/1080174469/Namespace_bcs_pid.o
 .sdata         0xa0000274       0x18 build/default/debug/_ext/1080174469/Namespace_bcs_rpc.o
 .sdata         0xa000028c       0x1c build/default/debug/_ext/711791526/main.o
 .sdata         0xa00002a8        0x1 build/default/debug/_ext/711791526/Servo.o
                0xa00002a8                stop
 *fill*         0xa00002a9        0x3 00
 .sdata         0xa00002ac       0x10 build/default/debug/_ext/711791526/CartesianController.o
                0xa00002ac                scale
                0xa00002b0                extrusionScale
 .sdata         0xa00002bc       0x14 build/default/debug/_ext/711791526/delta.o
                0xa00002bc                e
                0xa00002c0                f
                0xa00002c4                re
                0xa00002c8                rf
                0xa00002cc                zOffset
 .sdata         0xa00002d0        0x8 build/default/debug/_ext/711791526/servoCalibration.o
                0xa00002d8                _sdata_end = .

.lit8
 *(.lit8)

.lit4
 *(.lit4)
                0xa00002d8                . = ALIGN (0x4)
                0xa00002d8                _data_end = .
                0xa00002d8                _bss_begin = .

.sbss           0xa00002d8      0x190
                0xa00002d8                _sbss_begin = .
 *(.dynsbss)
 *(.sbss .sbss.* .gnu.linkonce.sb.*)
 .sbss          0xa00002d8       0x10 build/default/debug/_ext/1487882678/usb_fifo.o
 .sbss          0xa00002e8        0x2 build/default/debug/_ext/1487882678/usb_callback.o
 *fill*         0xa00002ea        0x2 00
 .sbss          0xa00002ec        0x8 build/default/debug/_ext/2118813141/HAL_P32.o
 .sbss          0xa00002f4        0x8 build/default/debug/_ext/2118813141/Tick.o
 .sbss          0xa00002fc        0x8 build/default/debug/_ext/2118813141/Bowler_UART_HAL.o
 .sbss          0xa0000304        0x8 build/default/debug/_ext/2118813141/UART.o
                0xa0000304                useUart2
                0xa0000308                useUart1
 .sbss          0xa000030c        0x4 build/default/debug/_ext/2118813141/ADC.o
                0xa000030c                ADCMask
 .sbss          0xa0000310       0x14 build/default/debug/_ext/1080174469/AbstractPID.o
                0xa0000310                number_of_pid_groups
 .sbss          0xa0000324        0x4 build/default/debug/_ext/1080174469/Bowler_RPC_Process.o
 .sbss          0xa0000328        0xc build/default/debug/_ext/1080174469/Debug.o
                0xa0000328                level
 .sbss          0xa0000334        0x4 build/default/debug/_ext/1080174469/Namespace_bcs_core.o
 .sbss          0xa0000338        0x4 build/default/debug/_ext/1080174469/Namespace_bcs_pid.o
 .sbss          0xa000033c        0x4 build/default/debug/_ext/1080174469/Namespace_bcs_rpc.o
 .sbss          0xa0000340        0xc build/default/debug/_ext/711791526/main.o
                0xa0000340                height
                0xa0000344                j
                0xa0000348                i
 .sbss          0xa000034c        0xc build/default/debug/_ext/711791526/Callbacks.o
 .sbss          0xa0000358        0x3 build/default/debug/_ext/711791526/AS5055.o
                0xa0000358                busy
                0xa0000359                initialized
                0xa000035a                lock
 *fill*         0xa000035b        0x1 00
 .sbss          0xa000035c        0x4 build/default/debug/_ext/711791526/PID.o
                0xa000035c                runPidIsr
 .sbss          0xa0000360        0xc build/default/debug/_ext/711791526/Servo.o
                0xa0000360                sortedIndex
                0xa0000364                start
                0xa0000368                servoCalibrationState
 .sbss          0xa000036c        0x4 build/default/debug/_ext/711791526/StepperSim.o
                0xa000036c                current
 .sbss          0xa0000370        0x4 build/default/debug/_ext/711791526/ForgeHeater.o
                0xa0000370                heaterIndex
 .sbss          0xa0000374        0x8 build/default/debug/_ext/711791526/CartesianController.o
                0xa0000374                full
                0xa0000378                lastPushedBufferSize
 .sbss          0xa000037c        0x4 build/default/debug/_ext/664674842/Namespace_bcs_cartesian.o
 .sbss          0xa0000380        0x4 /home/opt/microchip/xc32/v1.00/bin/../lib/gcc/pic32mx/4.5.1/../../../../pic32mx/lib/libc.a(errno.o)
                0xa0000380                errno
 *(.scommon)
 .scommon       0xa0000384       0x40 build/default/debug/_ext/1487882678/usb_function_cdc.o
                0xa0000384                control_signal_bitmap
                0xa0000388                cdc_tx_len
                0xa000038c                pCDCSrc
                0xa0000390                CDCDataOutHandle
                0xa0000394                cdc_rx_len
                0xa0000398                line_coding
                0xa00003a0                BaudRateGen
                0xa00003a4                CDCDataInHandle
                0xa00003a8                cdc_notice
                0xa00003b0                cdc_trf_state
                0xa00003b4                pCDCDst
                0xa00003b8                cdc_mem_type
                0xa00003bc                dummy_encapsulated_cmd_response
 .scommon       0xa00003c4       0x41 build/default/debug/_ext/1487882678/usb_device.o
                0xa00003c4                pDst
                0xa00003c8                USBDeviceState
                0xa00003cc                controlTransferState
                0xa00003d0                USBInMaxPacketSize
                0xa00003d8                inPipes
                0xa00003e0                BothEP0OutUOWNsSet
                0xa00003e4                pBDTEntryEP0OutNext
                0xa00003e8                SetupPkt
                0xa00003f0                shortPacketStatus
                0xa00003f4                pBDTEntryEP0OutCurrent
                0xa00003f8                USBActiveConfiguration
                0xa00003fc                RemoteWakeup
                0xa0000400                USTATcopy
                0xa0000404                USBAlternateInterface
 *fill*         0xa0000405        0x3 00
 .scommon       0xa0000408       0x24 build/default/debug/_ext/1080174469/AbstractPID.o
                0xa0000408                resetPosition
                0xa000040c                MathCalculationVelocity
                0xa0000410                velData
                0xa0000414                MathCalculationPosition
                0xa0000418                onPidConfigure
                0xa000041c                pidGroups
                0xa0000420                setOutput
                0xa0000424                getPosition
                0xa0000428                checkPIDLimitEvents
 .scommon       0xa000042c       0x18 build/default/debug/_ext/711791526/Servo.o
                0xa000042c                currentServo
                0xa0000430                lastValue
                0xa0000434                nextServo
                0xa0000438                nextValue
                0xa000043c                diff
                0xa0000440                currentValue
 .scommon       0xa0000444        0x4 build/default/debug/_ext/711791526/ForgeHeater.o
                0xa0000444                heaterLowpassIndex
 .scommon       0xa0000448       0x1c build/default/debug/_ext/711791526/delta.o
                0xa0000448                cos120
                0xa000044c                sqrt3
                0xa0000450                sin30
                0xa0000454                tan30
                0xa0000458                pi
                0xa000045c                sin120
                0xa0000460                tan60
 .scommon       0xa0000464        0x4 build/default/debug/_ext/711791526/servoCalibration.o
                0xa0000464                state
                0xa0000468                _sbss_end = .

.bss            0xa0000600     0x31a8
 *(.dynbss)
 *(COMMON)
 COMMON         0xa0000600       0x80 build/default/debug/_ext/1487882678/usb_function_cdc.o
                0xa0000600                cdc_data_tx
                0xa0000640                cdc_data_rx
 *fill*         0xa0000680      0x180 00
 COMMON         0xa0000800       0xf7 build/default/debug/_ext/1487882678/usb_device.o
                0xa0000800                BDT
                0xa0000880                CtrlTrfData
                0xa00008c0                pBDTEntryIn
                0xa00008d0                pBDTEntryOut
                0xa00008e0                USBInData
                0xa00008ec                outPipes
 *fill*         0xa00008f7        0x1 00
 COMMON         0xa00008f8       0x50 build/default/debug/_ext/2118813141/FlashStorage.o
                0xa00008f8                flash
 COMMON         0xa0000948      0x10a build/default/debug/_ext/711791526/Callbacks.o
                0xa0000948                tmpData
 *fill*         0xa0000a52        0x2 00
 COMMON         0xa0000a54       0x84 build/default/debug/_ext/711791526/AS5055.o
                0xa0000a54                overflow
                0xa0000a80                raw
                0xa0000aac                offset
 COMMON         0xa0000ad8       0xc0 build/default/debug/_ext/711791526/Servo.o
                0xa0000ad8                position
                0xa0000af8                sort
                0xa0000b18                velocity
 COMMON         0xa0000b98       0x10 build/default/debug/_ext/711791526/ForgeHeater.o
                0xa0000b98                heaterLowpass
 COMMON         0xa0000ba8     0x2bfe build/default/debug/_ext/711791526/CartesianController.o
                0xa0000ba8                packetFifo
                0xa0000bc0                intCartesian
                0xa0000bf0                linTmpPack
                0xa0000cfc                lastXYZE
                0xa0000d0c                buffer
                0xa000369c                packetTemp
                0xa00037a8                . = ALIGN (0x4)
 *fill*         0xa00037a6        0x2 00
                0xa00037a8                . = ALIGN (0x4)
                0xa00037a8                _end = .
                0xa00037a8                _bss_end = .
                0x00008000                _bmxdudba_address = 0x8000
                0x00008000                _bmxdupba_address = 0x8000

/DISCARD/
 *(.pdr)
 *(.reginfo)
 *(.rel.dyn)
 *(.note.GNU-stack)
 *(.note.GNU-stack)
 *(.gnu_debuglink)
 *(.gnu.lto_*)
 *(.discard)

.stab
 *(.stab)

.stabstr
 *(.stabstr)

.stab.excl
 *(.stab.excl)

.stab.exclstr
 *(.stab.exclstr)

.stab.index
 *(.stab.index)

.stab.indexstr
 *(.stab.indexstr)

.comment        0x00000000       0x9c
 *(.comment)
 .comment       0x00000000       0x33 build/default/debug/_ext/1487882678/usb_descriptors.o
                                 0x34 (size before relaxing)
 .comment       0x00000000       0x34 build/default/debug/_ext/1487882678/usb_function_cdc.o
 .comment       0x00000000       0x34 build/default/debug/_ext/1487882678/usb_fifo.o
 .comment       0x00000000       0x34 build/default/debug/_ext/1487882678/usb_callback.o
 .comment       0x00000000       0x34 build/default/debug/_ext/1487882678/usb_interrupt.o
 .comment       0x00000000       0x34 build/default/debug/_ext/1487882678/usb_device.o
 .comment       0x00000000       0x34 build/default/debug/_ext/2118813141/Delay.o
 .comment       0x00000000       0x34 build/default/debug/_ext/2118813141/FlashStorage.o
 .comment       0x00000000       0x34 build/default/debug/_ext/2118813141/HAL_P32.o
 .comment       0x00000000       0x34 build/default/debug/_ext/2118813141/LED.o
 .comment       0x00000000       0x34 build/default/debug/_ext/2118813141/Tick.o
 .comment       0x00000000       0x34 build/default/debug/_ext/2118813141/Bowler_UART_HAL.o
 .comment       0x00000000       0x34 build/default/debug/_ext/2118813141/UART.o
 .comment       0x00000000       0x34 build/default/debug/_ext/2118813141/ADC.o
 .comment       0x00000000       0x34 build/default/debug/_ext/2118813141/Bowler_USB_HAL.o
 .comment       0x00000000       0x34 build/default/debug/_ext/1080174469/Bowler_Helper.o
 .comment       0x00000000       0x34 build/default/debug/_ext/1080174469/AbstractPID.o
 .comment       0x00000000       0x34 build/default/debug/_ext/1080174469/Bowler_Stack_Callback.o
 .comment       0x00000000       0x34 build/default/debug/_ext/1080174469/FIFO.o
 .comment       0x00000000       0x34 build/default/debug/_ext/1080174469/Bowler_RPC_Process.o
 .comment       0x00000000       0x34 build/default/debug/_ext/1080174469/Bowler_Transport.o
 .comment       0x00000000       0x34 build/default/debug/_ext/1080174469/Debug.o
 .comment       0x00000000       0x34 build/default/debug/_ext/1080174469/Scheduler.o
 .comment       0x00000000       0x34 build/default/debug/_ext/1080174469/Bowler_Server.o
 .comment       0x00000000       0x34 build/default/debug/_ext/1080174469/Namespace_bcs_core.o
 .comment       0x00000000       0x34 build/default/debug/_ext/1080174469/Namespace_bcs_pid.o
 .comment       0x00000000       0x34 build/default/debug/_ext/1080174469/Namespace_bcs_rpc.o
 .comment       0x00000000       0x34 build/default/debug/_ext/711791526/SPIClient.o
 .comment       0x00000000       0x34 build/default/debug/_ext/711791526/main.o
 .comment       0x00000000       0x34 build/default/debug/_ext/711791526/Callbacks.o
 .comment       0x00000000       0x34 build/default/debug/_ext/711791526/UpstreamPackets.o
 .comment       0x00000000       0x34 build/default/debug/_ext/711791526/AS5055.o
 .comment       0x00000000       0x34 build/default/debug/_ext/711791526/PID.o
 .comment       0x00000000       0x34 build/default/debug/_ext/711791526/Servo.o
 .comment       0x00000000       0x34 build/default/debug/_ext/711791526/StepperSim.o
 .comment       0x00000000       0x34 build/default/debug/_ext/711791526/ForgeHeater.o
 .comment       0x00000000       0x34 build/default/debug/_ext/711791526/CartesianController.o
 .comment       0x00000000       0x34 build/default/debug/_ext/711791526/DeltaKinematics.o
 .comment       0x00000000       0x34 build/default/debug/_ext/711791526/delta.o
 .comment       0x00000000       0x34 build/default/debug/_ext/711791526/Calibration.o
 .comment       0x00000000       0x34 build/default/debug/_ext/711791526/MotionTest.o
 .comment       0x00000000       0x34 build/default/debug/_ext/664674842/Namespace_bcs_cartesian.o
 .comment       0x00000000       0x34 build/default/debug/_ext/711791526/servoCalibration.o
 .comment       0x00000000       0x34 /home/opt/microchip/xc32/v1.00/bin/../lib/gcc/pic32mx/4.5.1/libgcc.a(floatunsisf.o)
 .comment       0x00000033       0x18 /home/opt/microchip/xc32/v1.00/bin/../lib/gcc/pic32mx/4.5.1/../../../../pic32mx/lib/libc.a(memset.o)
                                 0x19 (size before relaxing)
 .comment       0x00000000       0x34 /home/opt/microchip/xc32/v1.00/bin/../lib/gcc/pic32mx/4.5.1/../../../../pic32mx/lib/libc.a(default-bootstrap-exception-handler.o)
 .comment       0x00000000       0x34 /home/opt/microchip/xc32/v1.00/bin/../lib/gcc/pic32mx/4.5.1/../../../../pic32mx/lib/libc.a(default-on-reset.o)
 .comment       0x00000000       0x34 /home/opt/microchip/xc32/v1.00/bin/../lib/gcc/pic32mx/4.5.1/../../../../pic32mx/lib/libc.a(default-on-bootstrap.o)
 .comment       0x00000000       0x34 /home/opt/microchip/xc32/v1.00/bin/../lib/gcc/pic32mx/4.5.1/../../../../pic32mx/lib/libm.a(w_sqrtf.o)
 .comment       0x00000000       0x34 /home/opt/microchip/xc32/v1.00/bin/../lib/gcc/pic32mx/4.5.1/../../../../pic32mx/lib/libm.a(s_lib_ver.o)
 .comment       0x00000000       0x34 /home/opt/microchip/xc32/v1.00/bin/../lib/gcc/pic32mx/4.5.1/../../../../pic32mx/lib/libc.a(errno.o)
 .comment       0x0000004b       0x51 /home/opt/microchip/xc32/v1.00/bin/../lib/gcc/pic32mx/4.5.1/../../../../pic32mx/lib/libmchp_peripheral_32MX440F128H.a(pcache.o)
                                 0x52 (size before relaxing)
 .comment       0x00000000       0x52 /home/opt/microchip/xc32/v1.00/bin/../lib/gcc/pic32mx/4.5.1/../../../../pic32mx/lib/libmchp_peripheral_32MX440F128H.a(int_enable_interrupts_lib.o)
 .comment       0x00000000       0x52 /home/opt/microchip/xc32/v1.00/bin/../lib/gcc/pic32mx/4.5.1/../../../../pic32mx/lib/libmchp_peripheral_32MX440F128H.a(int_disable_interrupts_lib.o)
 .comment       0x00000000       0x52 /home/opt/microchip/xc32/v1.00/bin/../lib/gcc/pic32mx/4.5.1/../../../../pic32mx/lib/libmchp_peripheral_32MX440F128H.a(int_restore_interrupts_lib.o)
 .comment       0x00000000       0x52 /home/opt/microchip/xc32/v1.00/bin/../lib/gcc/pic32mx/4.5.1/../../../../pic32mx/lib/libmchp_peripheral_32MX440F128H.a(int_enable_mv_int_lib.o)
 .comment       0x00000000       0x52 /home/opt/microchip/xc32/v1.00/bin/../lib/gcc/pic32mx/4.5.1/../../../../pic32mx/lib/libmchp_peripheral_32MX440F128H.a(int_tbl_lib.o)
 .comment       0x00000000       0x52 /home/opt/microchip/xc32/v1.00/bin/../lib/gcc/pic32mx/4.5.1/../../../../pic32mx/lib/libmchp_peripheral_32MX440F128H.a(spi_chn_getc_lib.o)
 .comment       0x00000000       0x52 /home/opt/microchip/xc32/v1.00/bin/../lib/gcc/pic32mx/4.5.1/../../../../pic32mx/lib/libmchp_peripheral_32MX440F128H.a(spi_chn_putc_lib.o)
 .comment       0x00000000       0x52 /home/opt/microchip/xc32/v1.00/bin/../lib/gcc/pic32mx/4.5.1/../../../../pic32mx/lib/libmchp_peripheral_32MX440F128H.a(spi_map_tbl_libp.o)
 .comment       0x00000000       0x52 /home/opt/microchip/xc32/v1.00/bin/../lib/gcc/pic32mx/4.5.1/../../../../pic32mx/lib/libmchp_peripheral_32MX440F128H.a(spi_open_spi2_lib_legacy.o)
 .comment       0x00000000       0x52 /home/opt/microchip/xc32/v1.00/bin/../lib/gcc/pic32mx/4.5.1/../../../../pic32mx/lib/libmchp_peripheral_32MX440F128H.a(spi_brg_tbl_lib_legacy.o)
 .comment       0x00000000       0x52 /home/opt/microchip/xc32/v1.00/bin/../lib/gcc/pic32mx/4.5.1/../../../../pic32mx/lib/libmchp_peripheral_32MX440F128H.a(nvm_erase_page_lib.o)
 .comment       0x00000000       0x52 /home/opt/microchip/xc32/v1.00/bin/../lib/gcc/pic32mx/4.5.1/../../../../pic32mx/lib/libmchp_peripheral_32MX440F128H.a(nvm_operation_lib.o)
 .comment       0x00000000       0x52 /home/opt/microchip/xc32/v1.00/bin/../lib/gcc/pic32mx/4.5.1/../../../../pic32mx/lib/libmchp_peripheral_32MX440F128H.a(nvm_write_word_lib.o)
 .comment       0x00000000       0x52 /home/opt/microchip/xc32/v1.00/bin/../lib/gcc/pic32mx/4.5.1/../../../../pic32mx/lib/libmchp_peripheral_32MX440F128H.a(port_set_pins_digital_out_lib.o)
 .comment       0x00000000       0x52 /home/opt/microchip/xc32/v1.00/bin/../lib/gcc/pic32mx/4.5.1/../../../../pic32mx/lib/libmchp_peripheral_32MX440F128H.a(port_clear_bits_lib.o)
 .comment       0x00000000       0x52 /home/opt/microchip/xc32/v1.00/bin/../lib/gcc/pic32mx/4.5.1/../../../../pic32mx/lib/libmchp_peripheral_32MX440F128H.a(port_set_bits_lib.o)
 .comment       0x00000000       0x52 /home/opt/microchip/xc32/v1.00/bin/../lib/gcc/pic32mx/4.5.1/../../../../pic32mx/lib/libmchp_peripheral_32MX440F128H.a(_ports_tbl_libp.o)
 .comment       0x00000000       0x52 /home/opt/microchip/xc32/v1.00/bin/../lib/gcc/pic32mx/4.5.1/../../../../pic32mx/lib/libmchp_peripheral_32MX440F128H.a(uart_lib.o)

.debug
 *(.debug)

.line
 *(.line)

.debug_srcinfo
 *(.debug_srcinfo)

.debug_sfnames
 *(.debug_sfnames)

.debug_aranges  0x00000000      0x7f8
 *(.debug_aranges)
 .debug_aranges
                0x00000000       0x20 build/default/debug/_ext/1487882678/usb_descriptors.o
 .debug_aranges
                0x00000020       0x20 build/default/debug/_ext/1487882678/usb_function_cdc.o
 .debug_aranges
                0x00000040       0x20 build/default/debug/_ext/1487882678/usb_fifo.o
 .debug_aranges
                0x00000060       0x20 build/default/debug/_ext/1487882678/usb_callback.o
 .debug_aranges
                0x00000080       0x20 build/default/debug/_ext/1487882678/usb_device.o
 .debug_aranges
                0x000000a0       0x20 build/default/debug/_ext/2118813141/Delay.o
 .debug_aranges
                0x000000c0       0x20 build/default/debug/_ext/2118813141/FlashStorage.o
 .debug_aranges
                0x000000e0       0x20 build/default/debug/_ext/2118813141/HAL_P32.o
 .debug_aranges
                0x00000100       0x20 build/default/debug/_ext/2118813141/LED.o
 .debug_aranges
                0x00000120       0x20 build/default/debug/_ext/2118813141/Tick.o
 .debug_aranges
                0x00000140       0x20 build/default/debug/_ext/2118813141/Bowler_UART_HAL.o
 .debug_aranges
                0x00000160       0x20 build/default/debug/_ext/2118813141/UART.o
 .debug_aranges
                0x00000180       0x20 build/default/debug/_ext/2118813141/ADC.o
 .debug_aranges
                0x000001a0       0x20 build/default/debug/_ext/2118813141/Bowler_USB_HAL.o
 .debug_aranges
                0x000001c0       0x20 build/default/debug/_ext/1080174469/Bowler_Helper.o
 .debug_aranges
                0x000001e0       0x20 build/default/debug/_ext/1080174469/AbstractPID.o
 .debug_aranges
                0x00000200       0x20 build/default/debug/_ext/1080174469/FIFO.o
 .debug_aranges
                0x00000220       0x20 build/default/debug/_ext/1080174469/Bowler_RPC_Process.o
 .debug_aranges
                0x00000240       0x20 build/default/debug/_ext/1080174469/Bowler_Transport.o
 .debug_aranges
                0x00000260       0x20 build/default/debug/_ext/1080174469/Debug.o
 .debug_aranges
                0x00000280       0x20 build/default/debug/_ext/1080174469/Scheduler.o
 .debug_aranges
                0x000002a0       0x20 build/default/debug/_ext/1080174469/Bowler_Server.o
 .debug_aranges
                0x000002c0       0x20 build/default/debug/_ext/1080174469/Namespace_bcs_core.o
 .debug_aranges
                0x000002e0       0x20 build/default/debug/_ext/1080174469/Namespace_bcs_pid.o
 .debug_aranges
                0x00000300       0x20 build/default/debug/_ext/1080174469/Namespace_bcs_rpc.o
 .debug_aranges
                0x00000320       0x20 build/default/debug/_ext/711791526/SPIClient.o
 .debug_aranges
                0x00000340       0x20 build/default/debug/_ext/711791526/main.o
 .debug_aranges
                0x00000360       0x20 build/default/debug/_ext/711791526/Callbacks.o
 .debug_aranges
                0x00000380       0x20 build/default/debug/_ext/711791526/UpstreamPackets.o
 .debug_aranges
                0x000003a0       0x20 build/default/debug/_ext/711791526/AS5055.o
 .debug_aranges
                0x000003c0       0x20 build/default/debug/_ext/711791526/PID.o
 .debug_aranges
                0x000003e0       0x20 build/default/debug/_ext/711791526/Servo.o
 .debug_aranges
                0x00000400       0x20 build/default/debug/_ext/711791526/StepperSim.o
 .debug_aranges
                0x00000420       0x20 build/default/debug/_ext/711791526/ForgeHeater.o
 .debug_aranges
                0x00000440       0x20 build/default/debug/_ext/711791526/CartesianController.o
 .debug_aranges
                0x00000460       0x20 build/default/debug/_ext/711791526/delta.o
 .debug_aranges
                0x00000480       0x20 build/default/debug/_ext/664674842/Namespace_bcs_cartesian.o
 .debug_aranges
                0x000004a0       0x20 build/default/debug/_ext/711791526/servoCalibration.o
 .debug_aranges
                0x000004c0       0x20 /home/opt/microchip/xc32/v1.00/bin/../lib/gcc/pic32mx/4.5.1/libgcc.a(floatunsisf.o)
 .debug_aranges
                0x000004e0       0x20 /home/opt/microchip/xc32/v1.00/bin/../lib/gcc/pic32mx/4.5.1/../../../../pic32mx/lib/libc.a(default-bootstrap-exception-handler.o)
 .debug_aranges
                0x00000500       0x20 /home/opt/microchip/xc32/v1.00/bin/../lib/gcc/pic32mx/4.5.1/../../../../pic32mx/lib/libc.a(default-on-reset.o)
 .debug_aranges
                0x00000520       0x20 /home/opt/microchip/xc32/v1.00/bin/../lib/gcc/pic32mx/4.5.1/../../../../pic32mx/lib/libc.a(default-on-bootstrap.o)
 .debug_aranges
                0x00000540       0x20 /home/opt/microchip/xc32/v1.00/bin/../lib/gcc/pic32mx/4.5.1/../../../../pic32mx/lib/libm.a(w_sqrtf.o)
 .debug_aranges
                0x00000560       0x28 /home/opt/microchip/xc32/v1.00/bin/../lib/gcc/pic32mx/4.5.1/../../../../pic32mx/lib/libmchp_peripheral_32MX440F128H.a(pcache.o)
 .debug_aranges
                0x00000588       0x20 /home/opt/microchip/xc32/v1.00/bin/../lib/gcc/pic32mx/4.5.1/../../../../pic32mx/lib/libmchp_peripheral_32MX440F128H.a(int_enable_interrupts_lib.o)
 .debug_aranges
                0x000005a8       0x20 /home/opt/microchip/xc32/v1.00/bin/../lib/gcc/pic32mx/4.5.1/../../../../pic32mx/lib/libmchp_peripheral_32MX440F128H.a(int_disable_interrupts_lib.o)
 .debug_aranges
                0x000005c8       0x20 /home/opt/microchip/xc32/v1.00/bin/../lib/gcc/pic32mx/4.5.1/../../../../pic32mx/lib/libmchp_peripheral_32MX440F128H.a(int_restore_interrupts_lib.o)
 .debug_aranges
                0x000005e8       0x20 /home/opt/microchip/xc32/v1.00/bin/../lib/gcc/pic32mx/4.5.1/../../../../pic32mx/lib/libmchp_peripheral_32MX440F128H.a(int_enable_mv_int_lib.o)
 .debug_aranges
                0x00000608       0x60 /home/opt/microchip/xc32/v1.00/bin/../lib/gcc/pic32mx/4.5.1/../../../../pic32mx/lib/libmchp_peripheral_32MX440F128H.a(int_tbl_lib.o)
 .debug_aranges
                0x00000668       0x28 /home/opt/microchip/xc32/v1.00/bin/../lib/gcc/pic32mx/4.5.1/../../../../pic32mx/lib/libmchp_peripheral_32MX440F128H.a(spi_chn_getc_lib.o)
 .debug_aranges
                0x00000690       0x30 /home/opt/microchip/xc32/v1.00/bin/../lib/gcc/pic32mx/4.5.1/../../../../pic32mx/lib/libmchp_peripheral_32MX440F128H.a(spi_chn_putc_lib.o)
 .debug_aranges
                0x000006c0       0x20 /home/opt/microchip/xc32/v1.00/bin/../lib/gcc/pic32mx/4.5.1/../../../../pic32mx/lib/libmchp_peripheral_32MX440F128H.a(spi_open_spi2_lib_legacy.o)
 .debug_aranges
                0x000006e0       0x20 /home/opt/microchip/xc32/v1.00/bin/../lib/gcc/pic32mx/4.5.1/../../../../pic32mx/lib/libmchp_peripheral_32MX440F128H.a(nvm_erase_page_lib.o)
 .debug_aranges
                0x00000700       0x20 /home/opt/microchip/xc32/v1.00/bin/../lib/gcc/pic32mx/4.5.1/../../../../pic32mx/lib/libmchp_peripheral_32MX440F128H.a(nvm_operation_lib.o)
 .debug_aranges
                0x00000720       0x20 /home/opt/microchip/xc32/v1.00/bin/../lib/gcc/pic32mx/4.5.1/../../../../pic32mx/lib/libmchp_peripheral_32MX440F128H.a(nvm_write_word_lib.o)
 .debug_aranges
                0x00000740       0x20 /home/opt/microchip/xc32/v1.00/bin/../lib/gcc/pic32mx/4.5.1/../../../../pic32mx/lib/libmchp_peripheral_32MX440F128H.a(port_set_pins_digital_out_lib.o)
 .debug_aranges
                0x00000760       0x20 /home/opt/microchip/xc32/v1.00/bin/../lib/gcc/pic32mx/4.5.1/../../../../pic32mx/lib/libmchp_peripheral_32MX440F128H.a(port_clear_bits_lib.o)
 .debug_aranges
                0x00000780       0x20 /home/opt/microchip/xc32/v1.00/bin/../lib/gcc/pic32mx/4.5.1/../../../../pic32mx/lib/libmchp_peripheral_32MX440F128H.a(port_set_bits_lib.o)
 .debug_aranges
                0x000007a0       0x58 /home/opt/microchip/xc32/v1.00/bin/../lib/gcc/pic32mx/4.5.1/../../../../pic32mx/lib/libmchp_peripheral_32MX440F128H.a(uart_lib.o)

.debug_pubnames
                0x00000000     0x2682
 *(.debug_pubnames)
 .debug_pubnames
                0x00000000       0xc2 build/default/debug/_ext/1487882678/usb_descriptors.o
 .debug_pubnames
                0x000000c2      0x1b1 build/default/debug/_ext/1487882678/usb_function_cdc.o
 .debug_pubnames
                0x00000273       0xe7 build/default/debug/_ext/1487882678/usb_fifo.o
 .debug_pubnames
                0x0000035a       0xfc build/default/debug/_ext/1487882678/usb_callback.o
 .debug_pubnames
                0x00000456      0x3d5 build/default/debug/_ext/1487882678/usb_device.o
 .debug_pubnames
                0x0000082b       0x5d build/default/debug/_ext/2118813141/Delay.o
 .debug_pubnames
                0x00000888       0xcd build/default/debug/_ext/2118813141/FlashStorage.o
 .debug_pubnames
                0x00000955       0xd7 build/default/debug/_ext/2118813141/HAL_P32.o
 .debug_pubnames
                0x00000a2c       0x50 build/default/debug/_ext/2118813141/LED.o
 .debug_pubnames
                0x00000a7c       0x8d build/default/debug/_ext/2118813141/Tick.o
 .debug_pubnames
                0x00000b09       0xe8 build/default/debug/_ext/2118813141/Bowler_UART_HAL.o
 .debug_pubnames
                0x00000bf1       0x4e build/default/debug/_ext/2118813141/UART.o
 .debug_pubnames
                0x00000c3f       0x52 build/default/debug/_ext/2118813141/ADC.o
 .debug_pubnames
                0x00000c91       0x4c build/default/debug/_ext/2118813141/Bowler_USB_HAL.o
 .debug_pubnames
                0x00000cdd       0xf6 build/default/debug/_ext/1080174469/Bowler_Helper.o
 .debug_pubnames
                0x00000dd3      0x37e build/default/debug/_ext/1080174469/AbstractPID.o
 .debug_pubnames
                0x00001151      0x154 build/default/debug/_ext/1080174469/FIFO.o
 .debug_pubnames
                0x000012a5       0x40 build/default/debug/_ext/1080174469/Bowler_RPC_Process.o
 .debug_pubnames
                0x000012e5       0x9f build/default/debug/_ext/1080174469/Bowler_Transport.o
 .debug_pubnames
                0x00001384      0x163 build/default/debug/_ext/1080174469/Debug.o
 .debug_pubnames
                0x000014e7       0x1f build/default/debug/_ext/1080174469/Scheduler.o
 .debug_pubnames
                0x00001506       0x71 build/default/debug/_ext/1080174469/Bowler_Server.o
 .debug_pubnames
                0x00001577       0xf3 build/default/debug/_ext/1080174469/Namespace_bcs_core.o
 .debug_pubnames
                0x0000166a       0x48 build/default/debug/_ext/1080174469/Namespace_bcs_pid.o
 .debug_pubnames
                0x000016b2       0x3f build/default/debug/_ext/1080174469/Namespace_bcs_rpc.o
 .debug_pubnames
                0x000016f1       0x2b build/default/debug/_ext/711791526/SPIClient.o
 .debug_pubnames
                0x0000171c       0xac build/default/debug/_ext/711791526/main.o
 .debug_pubnames
                0x000017c8       0x54 build/default/debug/_ext/711791526/Callbacks.o
 .debug_pubnames
                0x0000181c       0x3c build/default/debug/_ext/711791526/UpstreamPackets.o
 .debug_pubnames
                0x00001858      0x149 build/default/debug/_ext/711791526/AS5055.o
 .debug_pubnames
                0x000019a1       0xf9 build/default/debug/_ext/711791526/PID.o
 .debug_pubnames
                0x00001a9a      0x1cc build/default/debug/_ext/711791526/Servo.o
 .debug_pubnames
                0x00001c66       0x58 build/default/debug/_ext/711791526/StepperSim.o
 .debug_pubnames
                0x00001cbe       0xd9 build/default/debug/_ext/711791526/ForgeHeater.o
 .debug_pubnames
                0x00001d97      0x250 build/default/debug/_ext/711791526/CartesianController.o
 .debug_pubnames
                0x00001fe7       0xe9 build/default/debug/_ext/711791526/delta.o
 .debug_pubnames
                0x000020d0       0x4f build/default/debug/_ext/664674842/Namespace_bcs_cartesian.o
 .debug_pubnames
                0x0000211f       0xd1 build/default/debug/_ext/711791526/servoCalibration.o
 .debug_pubnames
                0x000021f0       0x24 /home/opt/microchip/xc32/v1.00/bin/../lib/gcc/pic32mx/4.5.1/libgcc.a(floatunsisf.o)
 .debug_pubnames
                0x00002214       0x33 /home/opt/microchip/xc32/v1.00/bin/../lib/gcc/pic32mx/4.5.1/../../../../pic32mx/lib/libc.a(default-bootstrap-exception-handler.o)
 .debug_pubnames
                0x00002247       0x20 /home/opt/microchip/xc32/v1.00/bin/../lib/gcc/pic32mx/4.5.1/../../../../pic32mx/lib/libc.a(default-on-reset.o)
 .debug_pubnames
                0x00002267       0x24 /home/opt/microchip/xc32/v1.00/bin/../lib/gcc/pic32mx/4.5.1/../../../../pic32mx/lib/libc.a(default-on-bootstrap.o)
 .debug_pubnames
                0x0000228b       0x1c /home/opt/microchip/xc32/v1.00/bin/../lib/gcc/pic32mx/4.5.1/../../../../pic32mx/lib/libm.a(w_sqrtf.o)
 .debug_pubnames
                0x000022a7       0x3b /home/opt/microchip/xc32/v1.00/bin/../lib/gcc/pic32mx/4.5.1/../../../../pic32mx/lib/libmchp_peripheral_32MX440F128H.a(pcache.o)
 .debug_pubnames
                0x000022e2       0x2a /home/opt/microchip/xc32/v1.00/bin/../lib/gcc/pic32mx/4.5.1/../../../../pic32mx/lib/libmchp_peripheral_32MX440F128H.a(int_enable_interrupts_lib.o)
 .debug_pubnames
                0x0000230c       0x2b /home/opt/microchip/xc32/v1.00/bin/../lib/gcc/pic32mx/4.5.1/../../../../pic32mx/lib/libmchp_peripheral_32MX440F128H.a(int_disable_interrupts_lib.o)
 .debug_pubnames
                0x00002337       0x2b /home/opt/microchip/xc32/v1.00/bin/../lib/gcc/pic32mx/4.5.1/../../../../pic32mx/lib/libmchp_peripheral_32MX440F128H.a(int_restore_interrupts_lib.o)
 .debug_pubnames
                0x00002362       0x36 /home/opt/microchip/xc32/v1.00/bin/../lib/gcc/pic32mx/4.5.1/../../../../pic32mx/lib/libmchp_peripheral_32MX440F128H.a(int_enable_mv_int_lib.o)
 .debug_pubnames
                0x00002398       0xca /home/opt/microchip/xc32/v1.00/bin/../lib/gcc/pic32mx/4.5.1/../../../../pic32mx/lib/libmchp_peripheral_32MX440F128H.a(int_tbl_lib.o)
 .debug_pubnames
                0x00002462       0x31 /home/opt/microchip/xc32/v1.00/bin/../lib/gcc/pic32mx/4.5.1/../../../../pic32mx/lib/libmchp_peripheral_32MX440F128H.a(spi_chn_getc_lib.o)
 .debug_pubnames
                0x00002493       0x43 /home/opt/microchip/xc32/v1.00/bin/../lib/gcc/pic32mx/4.5.1/../../../../pic32mx/lib/libmchp_peripheral_32MX440F128H.a(spi_chn_putc_lib.o)
 .debug_pubnames
                0x000024d6       0x1f /home/opt/microchip/xc32/v1.00/bin/../lib/gcc/pic32mx/4.5.1/../../../../pic32mx/lib/libmchp_peripheral_32MX440F128H.a(spi_open_spi2_lib_legacy.o)
 .debug_pubnames
                0x000024f5       0x23 /home/opt/microchip/xc32/v1.00/bin/../lib/gcc/pic32mx/4.5.1/../../../../pic32mx/lib/libmchp_peripheral_32MX440F128H.a(nvm_erase_page_lib.o)
 .debug_pubnames
                0x00002518       0x24 /home/opt/microchip/xc32/v1.00/bin/../lib/gcc/pic32mx/4.5.1/../../../../pic32mx/lib/libmchp_peripheral_32MX440F128H.a(nvm_operation_lib.o)
 .debug_pubnames
                0x0000253c       0x23 /home/opt/microchip/xc32/v1.00/bin/../lib/gcc/pic32mx/4.5.1/../../../../pic32mx/lib/libmchp_peripheral_32MX440F128H.a(nvm_write_word_lib.o)
 .debug_pubnames
                0x0000255f       0x2c /home/opt/microchip/xc32/v1.00/bin/../lib/gcc/pic32mx/4.5.1/../../../../pic32mx/lib/libmchp_peripheral_32MX440F128H.a(port_set_pins_digital_out_lib.o)
 .debug_pubnames
                0x0000258b       0x24 /home/opt/microchip/xc32/v1.00/bin/../lib/gcc/pic32mx/4.5.1/../../../../pic32mx/lib/libmchp_peripheral_32MX440F128H.a(port_clear_bits_lib.o)
 .debug_pubnames
                0x000025af       0x22 /home/opt/microchip/xc32/v1.00/bin/../lib/gcc/pic32mx/4.5.1/../../../../pic32mx/lib/libmchp_peripheral_32MX440F128H.a(port_set_bits_lib.o)
 .debug_pubnames
                0x000025d1       0xb1 /home/opt/microchip/xc32/v1.00/bin/../lib/gcc/pic32mx/4.5.1/../../../../pic32mx/lib/libmchp_peripheral_32MX440F128H.a(uart_lib.o)

.debug_info     0x00000000    0x42643
 *(.debug_info .gnu.linkonce.wi.*)
 .debug_info    0x00000000     0x16ad build/default/debug/_ext/1487882678/usb_descriptors.o
 .debug_info    0x000016ad     0x291f build/default/debug/_ext/1487882678/usb_function_cdc.o
 .debug_info    0x00003fcc     0x1b13 build/default/debug/_ext/1487882678/usb_fifo.o
 .debug_info    0x00005adf     0x1c7f build/default/debug/_ext/1487882678/usb_callback.o
 .debug_info    0x0000775e      0xf7f build/default/debug/_ext/1487882678/usb_interrupt.o
 .debug_info    0x000086dd     0x367f build/default/debug/_ext/1487882678/usb_device.o
 .debug_info    0x0000bd5c     0x109c build/default/debug/_ext/2118813141/Delay.o
 .debug_info    0x0000cdf8     0x1626 build/default/debug/_ext/2118813141/FlashStorage.o
 .debug_info    0x0000e41e     0x17be build/default/debug/_ext/2118813141/HAL_P32.o
 .debug_info    0x0000fbdc     0x1191 build/default/debug/_ext/2118813141/LED.o
 .debug_info    0x00010d6d     0x1488 build/default/debug/_ext/2118813141/Tick.o
 .debug_info    0x000121f5     0x257a build/default/debug/_ext/2118813141/Bowler_UART_HAL.o
 .debug_info    0x0001476f     0x16d9 build/default/debug/_ext/2118813141/UART.o
 .debug_info    0x00015e48     0x1b98 build/default/debug/_ext/2118813141/ADC.o
 .debug_info    0x000179e0     0x1078 build/default/debug/_ext/2118813141/Bowler_USB_HAL.o
 .debug_info    0x00018a58     0x16fc build/default/debug/_ext/1080174469/Bowler_Helper.o
 .debug_info    0x0001a154     0x17a5 build/default/debug/_ext/1080174469/AbstractPID.o
 .debug_info    0x0001b8f9      0xf80 build/default/debug/_ext/1080174469/Bowler_Stack_Callback.o
 .debug_info    0x0001c879     0x1811 build/default/debug/_ext/1080174469/FIFO.o
 .debug_info    0x0001e08a     0x172d build/default/debug/_ext/1080174469/Bowler_RPC_Process.o
 .debug_info    0x0001f7b7     0x1534 build/default/debug/_ext/1080174469/Bowler_Transport.o
 .debug_info    0x00020ceb     0x1c71 build/default/debug/_ext/1080174469/Debug.o
 .debug_info    0x0002295c     0x101d build/default/debug/_ext/1080174469/Scheduler.o
 .debug_info    0x00023979     0x1819 build/default/debug/_ext/1080174469/Bowler_Server.o
 .debug_info    0x00025192     0x19f2 build/default/debug/_ext/1080174469/Namespace_bcs_core.o
 .debug_info    0x00026b84     0x17bd build/default/debug/_ext/1080174469/Namespace_bcs_pid.o
 .debug_info    0x00028341     0x181e build/default/debug/_ext/1080174469/Namespace_bcs_rpc.o
 .debug_info    0x00029b5f      0xfdd build/default/debug/_ext/711791526/SPIClient.o
 .debug_info    0x0002ab3c     0x1f66 build/default/debug/_ext/711791526/main.o
 .debug_info    0x0002caa2     0x1583 build/default/debug/_ext/711791526/Callbacks.o
 .debug_info    0x0002e025     0x15e7 build/default/debug/_ext/711791526/UpstreamPackets.o
 .debug_info    0x0002f60c     0x23ce build/default/debug/_ext/711791526/AS5055.o
 .debug_info    0x000319da     0x1b97 build/default/debug/_ext/711791526/PID.o
 .debug_info    0x00033571     0x1e0f build/default/debug/_ext/711791526/Servo.o
 .debug_info    0x00035380     0x1551 build/default/debug/_ext/711791526/StepperSim.o
 .debug_info    0x000368d1     0x1986 build/default/debug/_ext/711791526/ForgeHeater.o
 .debug_info    0x00038257     0x1ea1 build/default/debug/_ext/711791526/CartesianController.o
 .debug_info    0x0003a0f8      0xf6a build/default/debug/_ext/711791526/DeltaKinematics.o
 .debug_info    0x0003b062     0x1714 build/default/debug/_ext/711791526/delta.o
 .debug_info    0x0003c776      0xf66 build/default/debug/_ext/711791526/Calibration.o
 .debug_info    0x0003d6dc      0xf65 build/default/debug/_ext/711791526/MotionTest.o
 .debug_info    0x0003e641     0x174f build/default/debug/_ext/664674842/Namespace_bcs_cartesian.o
 .debug_info    0x0003fd90     0x1666 build/default/debug/_ext/711791526/servoCalibration.o
 .debug_info    0x000413f6      0x146 /home/opt/microchip/xc32/v1.00/bin/../lib/gcc/pic32mx/4.5.1/libgcc.a(floatunsisf.o)
 .debug_info    0x0004153c       0xcb /home/opt/microchip/xc32/v1.00/bin/../lib/gcc/pic32mx/4.5.1/../../../../pic32mx/lib/libc.a(default-bootstrap-exception-handler.o)
 .debug_info    0x00041607       0xa5 /home/opt/microchip/xc32/v1.00/bin/../lib/gcc/pic32mx/4.5.1/../../../../pic32mx/lib/libc.a(default-on-reset.o)
 .debug_info    0x000416ac       0xad /home/opt/microchip/xc32/v1.00/bin/../lib/gcc/pic32mx/4.5.1/../../../../pic32mx/lib/libc.a(default-on-bootstrap.o)
 .debug_info    0x00041759       0x99 /home/opt/microchip/xc32/v1.00/bin/../lib/gcc/pic32mx/4.5.1/../../../../pic32mx/lib/libm.a(w_sqrtf.o)
 .debug_info    0x000417f2        0x0 /home/opt/microchip/xc32/v1.00/bin/../lib/gcc/pic32mx/4.5.1/../../../../pic32mx/lib/libm.a(s_lib_ver.o)
 .debug_info    0x000417f2        0x0 /home/opt/microchip/xc32/v1.00/bin/../lib/gcc/pic32mx/4.5.1/../../../../pic32mx/lib/libc.a(errno.o)
 .debug_info    0x000417f2       0xd4 /home/opt/microchip/xc32/v1.00/bin/../lib/gcc/pic32mx/4.5.1/../../../../pic32mx/lib/libmchp_peripheral_32MX440F128H.a(pcache.o)
 .debug_info    0x000418c6       0xc9 /home/opt/microchip/xc32/v1.00/bin/../lib/gcc/pic32mx/4.5.1/../../../../pic32mx/lib/libmchp_peripheral_32MX440F128H.a(int_enable_interrupts_lib.o)
 .debug_info    0x0004198f       0xcb /home/opt/microchip/xc32/v1.00/bin/../lib/gcc/pic32mx/4.5.1/../../../../pic32mx/lib/libmchp_peripheral_32MX440F128H.a(int_disable_interrupts_lib.o)
 .debug_info    0x00041a5a       0xcb /home/opt/microchip/xc32/v1.00/bin/../lib/gcc/pic32mx/4.5.1/../../../../pic32mx/lib/libmchp_peripheral_32MX440F128H.a(int_restore_interrupts_lib.o)
 .debug_info    0x00041b25       0xd1 /home/opt/microchip/xc32/v1.00/bin/../lib/gcc/pic32mx/4.5.1/../../../../pic32mx/lib/libmchp_peripheral_32MX440F128H.a(int_enable_mv_int_lib.o)
 .debug_info    0x00041bf6      0x1ab /home/opt/microchip/xc32/v1.00/bin/../lib/gcc/pic32mx/4.5.1/../../../../pic32mx/lib/libmchp_peripheral_32MX440F128H.a(int_tbl_lib.o)
 .debug_info    0x00041da1       0xd1 /home/opt/microchip/xc32/v1.00/bin/../lib/gcc/pic32mx/4.5.1/../../../../pic32mx/lib/libmchp_peripheral_32MX440F128H.a(spi_chn_getc_lib.o)
 .debug_info    0x00041e72       0xed /home/opt/microchip/xc32/v1.00/bin/../lib/gcc/pic32mx/4.5.1/../../../../pic32mx/lib/libmchp_peripheral_32MX440F128H.a(spi_chn_putc_lib.o)
 .debug_info    0x00041f5f        0x0 /home/opt/microchip/xc32/v1.00/bin/../lib/gcc/pic32mx/4.5.1/../../../../pic32mx/lib/libmchp_peripheral_32MX440F128H.a(spi_map_tbl_libp.o)
 .debug_info    0x00041f5f       0xbd /home/opt/microchip/xc32/v1.00/bin/../lib/gcc/pic32mx/4.5.1/../../../../pic32mx/lib/libmchp_peripheral_32MX440F128H.a(spi_open_spi2_lib_legacy.o)
 .debug_info    0x0004201c        0x0 /home/opt/microchip/xc32/v1.00/bin/../lib/gcc/pic32mx/4.5.1/../../../../pic32mx/lib/libmchp_peripheral_32MX440F128H.a(spi_brg_tbl_lib_legacy.o)
 .debug_info    0x0004201c       0xbb /home/opt/microchip/xc32/v1.00/bin/../lib/gcc/pic32mx/4.5.1/../../../../pic32mx/lib/libmchp_peripheral_32MX440F128H.a(nvm_erase_page_lib.o)
 .debug_info    0x000420d7       0xdc /home/opt/microchip/xc32/v1.00/bin/../lib/gcc/pic32mx/4.5.1/../../../../pic32mx/lib/libmchp_peripheral_32MX440F128H.a(nvm_operation_lib.o)
 .debug_info    0x000421b3       0xbb /home/opt/microchip/xc32/v1.00/bin/../lib/gcc/pic32mx/4.5.1/../../../../pic32mx/lib/libmchp_peripheral_32MX440F128H.a(nvm_write_word_lib.o)
 .debug_info    0x0004226e       0xd1 /home/opt/microchip/xc32/v1.00/bin/../lib/gcc/pic32mx/4.5.1/../../../../pic32mx/lib/libmchp_peripheral_32MX440F128H.a(port_set_pins_digital_out_lib.o)
 .debug_info    0x0004233f       0xbf /home/opt/microchip/xc32/v1.00/bin/../lib/gcc/pic32mx/4.5.1/../../../../pic32mx/lib/libmchp_peripheral_32MX440F128H.a(port_clear_bits_lib.o)
 .debug_info    0x000423fe       0xbb /home/opt/microchip/xc32/v1.00/bin/../lib/gcc/pic32mx/4.5.1/../../../../pic32mx/lib/libmchp_peripheral_32MX440F128H.a(port_set_bits_lib.o)
 .debug_info    0x000424b9        0x0 /home/opt/microchip/xc32/v1.00/bin/../lib/gcc/pic32mx/4.5.1/../../../../pic32mx/lib/libmchp_peripheral_32MX440F128H.a(_ports_tbl_libp.o)
 .debug_info    0x000424b9      0x18a /home/opt/microchip/xc32/v1.00/bin/../lib/gcc/pic32mx/4.5.1/../../../../pic32mx/lib/libmchp_peripheral_32MX440F128H.a(uart_lib.o)

.debug_abbrev   0x00000000     0x62b3
 *(.debug_abbrev)
 .debug_abbrev  0x00000000      0x209 build/default/debug/_ext/1487882678/usb_descriptors.o
 .debug_abbrev  0x00000209      0x2e3 build/default/debug/_ext/1487882678/usb_function_cdc.o
 .debug_abbrev  0x000004ec      0x289 build/default/debug/_ext/1487882678/usb_fifo.o
 .debug_abbrev  0x00000775      0x23e build/default/debug/_ext/1487882678/usb_callback.o
 .debug_abbrev  0x000009b3      0x166 build/default/debug/_ext/1487882678/usb_interrupt.o
 .debug_abbrev  0x00000b19      0x2c0 build/default/debug/_ext/1487882678/usb_device.o
 .debug_abbrev  0x00000dd9      0x1b0 build/default/debug/_ext/2118813141/Delay.o
 .debug_abbrev  0x00000f89      0x20f build/default/debug/_ext/2118813141/FlashStorage.o
 .debug_abbrev  0x00001198      0x2a1 build/default/debug/_ext/2118813141/HAL_P32.o
 .debug_abbrev  0x00001439      0x1b7 build/default/debug/_ext/2118813141/LED.o
 .debug_abbrev  0x000015f0      0x20b build/default/debug/_ext/2118813141/Tick.o
 .debug_abbrev  0x000017fb      0x279 build/default/debug/_ext/2118813141/Bowler_UART_HAL.o
 .debug_abbrev  0x00001a74      0x231 build/default/debug/_ext/2118813141/UART.o
 .debug_abbrev  0x00001ca5      0x1db build/default/debug/_ext/2118813141/ADC.o
 .debug_abbrev  0x00001e80      0x1d4 build/default/debug/_ext/2118813141/Bowler_USB_HAL.o
 .debug_abbrev  0x00002054      0x23d build/default/debug/_ext/1080174469/Bowler_Helper.o
 .debug_abbrev  0x00002291      0x282 build/default/debug/_ext/1080174469/AbstractPID.o
 .debug_abbrev  0x00002513      0x166 build/default/debug/_ext/1080174469/Bowler_Stack_Callback.o
 .debug_abbrev  0x00002679      0x24c build/default/debug/_ext/1080174469/FIFO.o
 .debug_abbrev  0x000028c5      0x256 build/default/debug/_ext/1080174469/Bowler_RPC_Process.o
 .debug_abbrev  0x00002b1b      0x244 build/default/debug/_ext/1080174469/Bowler_Transport.o
 .debug_abbrev  0x00002d5f      0x2b0 build/default/debug/_ext/1080174469/Debug.o
 .debug_abbrev  0x0000300f      0x1ac build/default/debug/_ext/1080174469/Scheduler.o
 .debug_abbrev  0x000031bb      0x28b build/default/debug/_ext/1080174469/Bowler_Server.o
 .debug_abbrev  0x00003446      0x2a8 build/default/debug/_ext/1080174469/Namespace_bcs_core.o
 .debug_abbrev  0x000036ee      0x242 build/default/debug/_ext/1080174469/Namespace_bcs_pid.o
 .debug_abbrev  0x00003930      0x251 build/default/debug/_ext/1080174469/Namespace_bcs_rpc.o
 .debug_abbrev  0x00003b81      0x19d build/default/debug/_ext/711791526/SPIClient.o
 .debug_abbrev  0x00003d1e      0x3e1 build/default/debug/_ext/711791526/main.o
 .debug_abbrev  0x000040ff      0x242 build/default/debug/_ext/711791526/Callbacks.o
 .debug_abbrev  0x00004341      0x219 build/default/debug/_ext/711791526/UpstreamPackets.o
 .debug_abbrev  0x0000455a      0x292 build/default/debug/_ext/711791526/AS5055.o
 .debug_abbrev  0x000047ec      0x2aa build/default/debug/_ext/711791526/PID.o
 .debug_abbrev  0x00004a96      0x2b1 build/default/debug/_ext/711791526/Servo.o
 .debug_abbrev  0x00004d47      0x1ca build/default/debug/_ext/711791526/StepperSim.o
 .debug_abbrev  0x00004f11      0x217 build/default/debug/_ext/711791526/ForgeHeater.o
 .debug_abbrev  0x00005128      0x357 build/default/debug/_ext/711791526/CartesianController.o
 .debug_abbrev  0x0000547f      0x166 build/default/debug/_ext/711791526/DeltaKinematics.o
 .debug_abbrev  0x000055e5      0x1ee build/default/debug/_ext/711791526/delta.o
 .debug_abbrev  0x000057d3      0x166 build/default/debug/_ext/711791526/Calibration.o
 .debug_abbrev  0x00005939      0x166 build/default/debug/_ext/711791526/MotionTest.o
 .debug_abbrev  0x00005a9f      0x258 build/default/debug/_ext/664674842/Namespace_bcs_cartesian.o
 .debug_abbrev  0x00005cf7      0x250 build/default/debug/_ext/711791526/servoCalibration.o
 .debug_abbrev  0x00005f47       0x61 /home/opt/microchip/xc32/v1.00/bin/../lib/gcc/pic32mx/4.5.1/libgcc.a(floatunsisf.o)
 .debug_abbrev  0x00005fa8       0x25 /home/opt/microchip/xc32/v1.00/bin/../lib/gcc/pic32mx/4.5.1/../../../../pic32mx/lib/libc.a(default-bootstrap-exception-handler.o)
 .debug_abbrev  0x00005fcd       0x25 /home/opt/microchip/xc32/v1.00/bin/../lib/gcc/pic32mx/4.5.1/../../../../pic32mx/lib/libc.a(default-on-reset.o)
 .debug_abbrev  0x00005ff2       0x25 /home/opt/microchip/xc32/v1.00/bin/../lib/gcc/pic32mx/4.5.1/../../../../pic32mx/lib/libc.a(default-on-bootstrap.o)
 .debug_abbrev  0x00006017       0x25 /home/opt/microchip/xc32/v1.00/bin/../lib/gcc/pic32mx/4.5.1/../../../../pic32mx/lib/libm.a(w_sqrtf.o)
 .debug_abbrev  0x0000603c        0x1 /home/opt/microchip/xc32/v1.00/bin/../lib/gcc/pic32mx/4.5.1/../../../../pic32mx/lib/libm.a(s_lib_ver.o)
 .debug_abbrev  0x0000603d        0x1 /home/opt/microchip/xc32/v1.00/bin/../lib/gcc/pic32mx/4.5.1/../../../../pic32mx/lib/libc.a(errno.o)
 .debug_abbrev  0x0000603e       0x25 /home/opt/microchip/xc32/v1.00/bin/../lib/gcc/pic32mx/4.5.1/../../../../pic32mx/lib/libmchp_peripheral_32MX440F128H.a(pcache.o)
 .debug_abbrev  0x00006063       0x25 /home/opt/microchip/xc32/v1.00/bin/../lib/gcc/pic32mx/4.5.1/../../../../pic32mx/lib/libmchp_peripheral_32MX440F128H.a(int_enable_interrupts_lib.o)
 .debug_abbrev  0x00006088       0x25 /home/opt/microchip/xc32/v1.00/bin/../lib/gcc/pic32mx/4.5.1/../../../../pic32mx/lib/libmchp_peripheral_32MX440F128H.a(int_disable_interrupts_lib.o)
 .debug_abbrev  0x000060ad       0x25 /home/opt/microchip/xc32/v1.00/bin/../lib/gcc/pic32mx/4.5.1/../../../../pic32mx/lib/libmchp_peripheral_32MX440F128H.a(int_restore_interrupts_lib.o)
 .debug_abbrev  0x000060d2       0x25 /home/opt/microchip/xc32/v1.00/bin/../lib/gcc/pic32mx/4.5.1/../../../../pic32mx/lib/libmchp_peripheral_32MX440F128H.a(int_enable_mv_int_lib.o)
 .debug_abbrev  0x000060f7       0x25 /home/opt/microchip/xc32/v1.00/bin/../lib/gcc/pic32mx/4.5.1/../../../../pic32mx/lib/libmchp_peripheral_32MX440F128H.a(int_tbl_lib.o)
 .debug_abbrev  0x0000611c       0x25 /home/opt/microchip/xc32/v1.00/bin/../lib/gcc/pic32mx/4.5.1/../../../../pic32mx/lib/libmchp_peripheral_32MX440F128H.a(spi_chn_getc_lib.o)
 .debug_abbrev  0x00006141       0x25 /home/opt/microchip/xc32/v1.00/bin/../lib/gcc/pic32mx/4.5.1/../../../../pic32mx/lib/libmchp_peripheral_32MX440F128H.a(spi_chn_putc_lib.o)
 .debug_abbrev  0x00006166        0x1 /home/opt/microchip/xc32/v1.00/bin/../lib/gcc/pic32mx/4.5.1/../../../../pic32mx/lib/libmchp_peripheral_32MX440F128H.a(spi_map_tbl_libp.o)
 .debug_abbrev  0x00006167       0x25 /home/opt/microchip/xc32/v1.00/bin/../lib/gcc/pic32mx/4.5.1/../../../../pic32mx/lib/libmchp_peripheral_32MX440F128H.a(spi_open_spi2_lib_legacy.o)
 .debug_abbrev  0x0000618c        0x1 /home/opt/microchip/xc32/v1.00/bin/../lib/gcc/pic32mx/4.5.1/../../../../pic32mx/lib/libmchp_peripheral_32MX440F128H.a(spi_brg_tbl_lib_legacy.o)
 .debug_abbrev  0x0000618d       0x25 /home/opt/microchip/xc32/v1.00/bin/../lib/gcc/pic32mx/4.5.1/../../../../pic32mx/lib/libmchp_peripheral_32MX440F128H.a(nvm_erase_page_lib.o)
 .debug_abbrev  0x000061b2       0x34 /home/opt/microchip/xc32/v1.00/bin/../lib/gcc/pic32mx/4.5.1/../../../../pic32mx/lib/libmchp_peripheral_32MX440F128H.a(nvm_operation_lib.o)
 .debug_abbrev  0x000061e6       0x25 /home/opt/microchip/xc32/v1.00/bin/../lib/gcc/pic32mx/4.5.1/../../../../pic32mx/lib/libmchp_peripheral_32MX440F128H.a(nvm_write_word_lib.o)
 .debug_abbrev  0x0000620b       0x25 /home/opt/microchip/xc32/v1.00/bin/../lib/gcc/pic32mx/4.5.1/../../../../pic32mx/lib/libmchp_peripheral_32MX440F128H.a(port_set_pins_digital_out_lib.o)
 .debug_abbrev  0x00006230       0x25 /home/opt/microchip/xc32/v1.00/bin/../lib/gcc/pic32mx/4.5.1/../../../../pic32mx/lib/libmchp_peripheral_32MX440F128H.a(port_clear_bits_lib.o)
 .debug_abbrev  0x00006255       0x25 /home/opt/microchip/xc32/v1.00/bin/../lib/gcc/pic32mx/4.5.1/../../../../pic32mx/lib/libmchp_peripheral_32MX440F128H.a(port_set_bits_lib.o)
 .debug_abbrev  0x0000627a        0x1 /home/opt/microchip/xc32/v1.00/bin/../lib/gcc/pic32mx/4.5.1/../../../../pic32mx/lib/libmchp_peripheral_32MX440F128H.a(_ports_tbl_libp.o)
 .debug_abbrev  0x0000627b       0x38 /home/opt/microchip/xc32/v1.00/bin/../lib/gcc/pic32mx/4.5.1/../../../../pic32mx/lib/libmchp_peripheral_32MX440F128H.a(uart_lib.o)

.debug_line     0x00000000     0x702d
 *(.debug_line)
 .debug_line    0x00000000      0x244 build/default/debug/_ext/1487882678/usb_descriptors.o
 .debug_line    0x00000244      0x339 build/default/debug/_ext/1487882678/usb_function_cdc.o
 .debug_line    0x0000057d      0x304 build/default/debug/_ext/1487882678/usb_fifo.o
 .debug_line    0x00000881      0x285 build/default/debug/_ext/1487882678/usb_callback.o
 .debug_line    0x00000b06      0x133 build/default/debug/_ext/1487882678/usb_interrupt.o
 .debug_line    0x00000c39      0x621 build/default/debug/_ext/1487882678/usb_device.o
 .debug_line    0x0000125a      0x1d6 build/default/debug/_ext/2118813141/Delay.o
 .debug_line    0x00001430      0x295 build/default/debug/_ext/2118813141/FlashStorage.o
 .debug_line    0x000016c5      0x277 build/default/debug/_ext/2118813141/HAL_P32.o
 .debug_line    0x0000193c      0x1dd build/default/debug/_ext/2118813141/LED.o
 .debug_line    0x00001b19      0x22d build/default/debug/_ext/2118813141/Tick.o
 .debug_line    0x00001d46      0x293 build/default/debug/_ext/2118813141/Bowler_UART_HAL.o
 .debug_line    0x00001fd9      0x211 build/default/debug/_ext/2118813141/UART.o
 .debug_line    0x000021ea      0x20f build/default/debug/_ext/2118813141/ADC.o
 .debug_line    0x000023f9      0x1cb build/default/debug/_ext/2118813141/Bowler_USB_HAL.o
 .debug_line    0x000025c4      0x24c build/default/debug/_ext/1080174469/Bowler_Helper.o
 .debug_line    0x00002810      0x485 build/default/debug/_ext/1080174469/AbstractPID.o
 .debug_line    0x00002c95      0x133 build/default/debug/_ext/1080174469/Bowler_Stack_Callback.o
 .debug_line    0x00002dc8      0x292 build/default/debug/_ext/1080174469/FIFO.o
 .debug_line    0x0000305a      0x229 build/default/debug/_ext/1080174469/Bowler_RPC_Process.o
 .debug_line    0x00003283      0x232 build/default/debug/_ext/1080174469/Bowler_Transport.o
 .debug_line    0x000034b5      0x348 build/default/debug/_ext/1080174469/Debug.o
 .debug_line    0x000037fd      0x199 build/default/debug/_ext/1080174469/Scheduler.o
 .debug_line    0x00003996      0x23a build/default/debug/_ext/1080174469/Bowler_Server.o
 .debug_line    0x00003bd0      0x2b1 build/default/debug/_ext/1080174469/Namespace_bcs_core.o
 .debug_line    0x00003e81      0x206 build/default/debug/_ext/1080174469/Namespace_bcs_pid.o
 .debug_line    0x00004087      0x242 build/default/debug/_ext/1080174469/Namespace_bcs_rpc.o
 .debug_line    0x000042c9      0x162 build/default/debug/_ext/711791526/SPIClient.o
 .debug_line    0x0000442b      0x3a2 build/default/debug/_ext/711791526/main.o
 .debug_line    0x000047cd      0x207 build/default/debug/_ext/711791526/Callbacks.o
 .debug_line    0x000049d4      0x242 build/default/debug/_ext/711791526/UpstreamPackets.o
 .debug_line    0x00004c16      0x2ea build/default/debug/_ext/711791526/AS5055.o
 .debug_line    0x00004f00      0x2db build/default/debug/_ext/711791526/PID.o
 .debug_line    0x000051db      0x31b build/default/debug/_ext/711791526/Servo.o
 .debug_line    0x000054f6      0x1b8 build/default/debug/_ext/711791526/StepperSim.o
 .debug_line    0x000056ae      0x240 build/default/debug/_ext/711791526/ForgeHeater.o
 .debug_line    0x000058ee      0x3b8 build/default/debug/_ext/711791526/CartesianController.o
 .debug_line    0x00005ca6      0x128 build/default/debug/_ext/711791526/DeltaKinematics.o
 .debug_line    0x00005dce      0x240 build/default/debug/_ext/711791526/delta.o
 .debug_line    0x0000600e      0x128 build/default/debug/_ext/711791526/Calibration.o
 .debug_line    0x00006136      0x128 build/default/debug/_ext/711791526/MotionTest.o
 .debug_line    0x0000625e      0x1ff build/default/debug/_ext/664674842/Namespace_bcs_cartesian.o
 .debug_line    0x0000645d      0x267 build/default/debug/_ext/711791526/servoCalibration.o
 .debug_line    0x000066c4       0x6d /home/opt/microchip/xc32/v1.00/bin/../lib/gcc/pic32mx/4.5.1/libgcc.a(floatunsisf.o)
 .debug_line    0x00006731       0x89 /home/opt/microchip/xc32/v1.00/bin/../lib/gcc/pic32mx/4.5.1/../../../../pic32mx/lib/libc.a(default-bootstrap-exception-handler.o)
 .debug_line    0x000067ba       0x76 /home/opt/microchip/xc32/v1.00/bin/../lib/gcc/pic32mx/4.5.1/../../../../pic32mx/lib/libc.a(default-on-reset.o)
 .debug_line    0x00006830       0x7a /home/opt/microchip/xc32/v1.00/bin/../lib/gcc/pic32mx/4.5.1/../../../../pic32mx/lib/libc.a(default-on-bootstrap.o)
 .debug_line    0x000068aa       0x6e /home/opt/microchip/xc32/v1.00/bin/../lib/gcc/pic32mx/4.5.1/../../../../pic32mx/lib/libm.a(w_sqrtf.o)
 .debug_line    0x00006918        0x0 /home/opt/microchip/xc32/v1.00/bin/../lib/gcc/pic32mx/4.5.1/../../../../pic32mx/lib/libm.a(s_lib_ver.o)
 .debug_line    0x00006918        0x0 /home/opt/microchip/xc32/v1.00/bin/../lib/gcc/pic32mx/4.5.1/../../../../pic32mx/lib/libc.a(errno.o)
 .debug_line    0x00006918       0x62 /home/opt/microchip/xc32/v1.00/bin/../lib/gcc/pic32mx/4.5.1/../../../../pic32mx/lib/libmchp_peripheral_32MX440F128H.a(pcache.o)
 .debug_line    0x0000697a       0x72 /home/opt/microchip/xc32/v1.00/bin/../lib/gcc/pic32mx/4.5.1/../../../../pic32mx/lib/libmchp_peripheral_32MX440F128H.a(int_enable_interrupts_lib.o)
 .debug_line    0x000069ec       0x73 /home/opt/microchip/xc32/v1.00/bin/../lib/gcc/pic32mx/4.5.1/../../../../pic32mx/lib/libmchp_peripheral_32MX440F128H.a(int_disable_interrupts_lib.o)
 .debug_line    0x00006a5f       0x73 /home/opt/microchip/xc32/v1.00/bin/../lib/gcc/pic32mx/4.5.1/../../../../pic32mx/lib/libmchp_peripheral_32MX440F128H.a(int_restore_interrupts_lib.o)
 .debug_line    0x00006ad2       0x6e /home/opt/microchip/xc32/v1.00/bin/../lib/gcc/pic32mx/4.5.1/../../../../pic32mx/lib/libmchp_peripheral_32MX440F128H.a(int_enable_mv_int_lib.o)
 .debug_line    0x00006b40       0x64 /home/opt/microchip/xc32/v1.00/bin/../lib/gcc/pic32mx/4.5.1/../../../../pic32mx/lib/libmchp_peripheral_32MX440F128H.a(int_tbl_lib.o)
 .debug_line    0x00006ba4       0x69 /home/opt/microchip/xc32/v1.00/bin/../lib/gcc/pic32mx/4.5.1/../../../../pic32mx/lib/libmchp_peripheral_32MX440F128H.a(spi_chn_getc_lib.o)
 .debug_line    0x00006c0d       0x69 /home/opt/microchip/xc32/v1.00/bin/../lib/gcc/pic32mx/4.5.1/../../../../pic32mx/lib/libmchp_peripheral_32MX440F128H.a(spi_chn_putc_lib.o)
 .debug_line    0x00006c76        0x0 /home/opt/microchip/xc32/v1.00/bin/../lib/gcc/pic32mx/4.5.1/../../../../pic32mx/lib/libmchp_peripheral_32MX440F128H.a(spi_map_tbl_libp.o)
 .debug_line    0x00006c76       0x71 /home/opt/microchip/xc32/v1.00/bin/../lib/gcc/pic32mx/4.5.1/../../../../pic32mx/lib/libmchp_peripheral_32MX440F128H.a(spi_open_spi2_lib_legacy.o)
 .debug_line    0x00006ce7        0x0 /home/opt/microchip/xc32/v1.00/bin/../lib/gcc/pic32mx/4.5.1/../../../../pic32mx/lib/libmchp_peripheral_32MX440F128H.a(spi_brg_tbl_lib_legacy.o)
 .debug_line    0x00006ce7       0x6b /home/opt/microchip/xc32/v1.00/bin/../lib/gcc/pic32mx/4.5.1/../../../../pic32mx/lib/libmchp_peripheral_32MX440F128H.a(nvm_erase_page_lib.o)
 .debug_line    0x00006d52       0xbc /home/opt/microchip/xc32/v1.00/bin/../lib/gcc/pic32mx/4.5.1/../../../../pic32mx/lib/libmchp_peripheral_32MX440F128H.a(nvm_operation_lib.o)
 .debug_line    0x00006e0e       0x6b /home/opt/microchip/xc32/v1.00/bin/../lib/gcc/pic32mx/4.5.1/../../../../pic32mx/lib/libmchp_peripheral_32MX440F128H.a(nvm_write_word_lib.o)
 .debug_line    0x00006e79       0x78 /home/opt/microchip/xc32/v1.00/bin/../lib/gcc/pic32mx/4.5.1/../../../../pic32mx/lib/libmchp_peripheral_32MX440F128H.a(port_set_pins_digital_out_lib.o)
 .debug_line    0x00006ef1       0x6e /home/opt/microchip/xc32/v1.00/bin/../lib/gcc/pic32mx/4.5.1/../../../../pic32mx/lib/libmchp_peripheral_32MX440F128H.a(port_clear_bits_lib.o)
 .debug_line    0x00006f5f       0x6c /home/opt/microchip/xc32/v1.00/bin/../lib/gcc/pic32mx/4.5.1/../../../../pic32mx/lib/libmchp_peripheral_32MX440F128H.a(port_set_bits_lib.o)
 .debug_line    0x00006fcb        0x0 /home/opt/microchip/xc32/v1.00/bin/../lib/gcc/pic32mx/4.5.1/../../../../pic32mx/lib/libmchp_peripheral_32MX440F128H.a(_ports_tbl_libp.o)
 .debug_line    0x00006fcb       0x62 /home/opt/microchip/xc32/v1.00/bin/../lib/gcc/pic32mx/4.5.1/../../../../pic32mx/lib/libmchp_peripheral_32MX440F128H.a(uart_lib.o)

.debug_frame    0x00000000     0x2bb8
 *(.debug_frame)
 .debug_frame   0x00000000       0x64 build/default/debug/_ext/1487882678/usb_descriptors.o
 .debug_frame   0x00000064       0xf0 build/default/debug/_ext/1487882678/usb_function_cdc.o
 .debug_frame   0x00000154      0x164 build/default/debug/_ext/1487882678/usb_fifo.o
 .debug_frame   0x000002b8      0x128 build/default/debug/_ext/1487882678/usb_callback.o
 .debug_frame   0x000003e0      0x310 build/default/debug/_ext/1487882678/usb_device.o
 .debug_frame   0x000006f0       0x9c build/default/debug/_ext/2118813141/Delay.o
 .debug_frame   0x0000078c      0x128 build/default/debug/_ext/2118813141/FlashStorage.o
 .debug_frame   0x000008b4      0x128 build/default/debug/_ext/2118813141/HAL_P32.o
 .debug_frame   0x000009dc       0x9c build/default/debug/_ext/2118813141/LED.o
 .debug_frame   0x00000a78       0xdc build/default/debug/_ext/2118813141/Tick.o
 .debug_frame   0x00000b54      0x148 build/default/debug/_ext/2118813141/Bowler_UART_HAL.o
 .debug_frame   0x00000c9c       0x48 build/default/debug/_ext/2118813141/UART.o
 .debug_frame   0x00000ce4       0x64 build/default/debug/_ext/2118813141/ADC.o
 .debug_frame   0x00000d48       0x64 build/default/debug/_ext/2118813141/Bowler_USB_HAL.o
 .debug_frame   0x00000dac      0x1bc build/default/debug/_ext/1080174469/Bowler_Helper.o
 .debug_frame   0x00000f68      0x44c build/default/debug/_ext/1080174469/AbstractPID.o
 .debug_frame   0x000013b4      0x1f4 build/default/debug/_ext/1080174469/FIFO.o
 .debug_frame   0x000015a8       0x4c build/default/debug/_ext/1080174469/Bowler_RPC_Process.o
 .debug_frame   0x000015f4       0xf4 build/default/debug/_ext/1080174469/Bowler_Transport.o
 .debug_frame   0x000016e8      0x1ec build/default/debug/_ext/1080174469/Debug.o
 .debug_frame   0x000018d4       0x30 build/default/debug/_ext/1080174469/Scheduler.o
 .debug_frame   0x00001904       0x88 build/default/debug/_ext/1080174469/Bowler_Server.o
 .debug_frame   0x0000198c      0x148 build/default/debug/_ext/1080174469/Namespace_bcs_core.o
 .debug_frame   0x00001ad4       0x48 build/default/debug/_ext/1080174469/Namespace_bcs_pid.o
 .debug_frame   0x00001b1c       0x64 build/default/debug/_ext/1080174469/Namespace_bcs_rpc.o
 .debug_frame   0x00001b80       0x48 build/default/debug/_ext/711791526/SPIClient.o
 .debug_frame   0x00001bc8       0xc0 build/default/debug/_ext/711791526/main.o
 .debug_frame   0x00001c88       0x64 build/default/debug/_ext/711791526/Callbacks.o
 .debug_frame   0x00001cec       0x6c build/default/debug/_ext/711791526/UpstreamPackets.o
 .debug_frame   0x00001d58      0x168 build/default/debug/_ext/711791526/AS5055.o
 .debug_frame   0x00001ec0      0x14c build/default/debug/_ext/711791526/PID.o
 .debug_frame   0x0000200c      0x1e8 build/default/debug/_ext/711791526/Servo.o
 .debug_frame   0x000021f4       0x8c build/default/debug/_ext/711791526/StepperSim.o
 .debug_frame   0x00002280      0x100 build/default/debug/_ext/711791526/ForgeHeater.o
 .debug_frame   0x00002380      0x250 build/default/debug/_ext/711791526/CartesianController.o
 .debug_frame   0x000025d0       0xac build/default/debug/_ext/711791526/delta.o
 .debug_frame   0x0000267c       0x48 build/default/debug/_ext/664674842/Namespace_bcs_cartesian.o
 .debug_frame   0x000026c4       0xf4 build/default/debug/_ext/711791526/servoCalibration.o
 .debug_frame   0x000027b8       0x28 /home/opt/microchip/xc32/v1.00/bin/../lib/gcc/pic32mx/4.5.1/libgcc.a(floatunsisf.o)
 .debug_frame   0x000027e0       0x20 /home/opt/microchip/xc32/v1.00/bin/../lib/gcc/pic32mx/4.5.1/../../../../pic32mx/lib/libc.a(default-bootstrap-exception-handler.o)
 .debug_frame   0x00002800       0x20 /home/opt/microchip/xc32/v1.00/bin/../lib/gcc/pic32mx/4.5.1/../../../../pic32mx/lib/libc.a(default-on-reset.o)
 .debug_frame   0x00002820       0x20 /home/opt/microchip/xc32/v1.00/bin/../lib/gcc/pic32mx/4.5.1/../../../../pic32mx/lib/libc.a(default-on-bootstrap.o)
 .debug_frame   0x00002840       0x28 /home/opt/microchip/xc32/v1.00/bin/../lib/gcc/pic32mx/4.5.1/../../../../pic32mx/lib/libm.a(w_sqrtf.o)
 .debug_frame   0x00002868       0x30 /home/opt/microchip/xc32/v1.00/bin/../lib/gcc/pic32mx/4.5.1/../../../../pic32mx/lib/libmchp_peripheral_32MX440F128H.a(pcache.o)
 .debug_frame   0x00002898       0x20 /home/opt/microchip/xc32/v1.00/bin/../lib/gcc/pic32mx/4.5.1/../../../../pic32mx/lib/libmchp_peripheral_32MX440F128H.a(int_enable_interrupts_lib.o)
 .debug_frame   0x000028b8       0x20 /home/opt/microchip/xc32/v1.00/bin/../lib/gcc/pic32mx/4.5.1/../../../../pic32mx/lib/libmchp_peripheral_32MX440F128H.a(int_disable_interrupts_lib.o)
 .debug_frame   0x000028d8       0x20 /home/opt/microchip/xc32/v1.00/bin/../lib/gcc/pic32mx/4.5.1/../../../../pic32mx/lib/libmchp_peripheral_32MX440F128H.a(int_restore_interrupts_lib.o)
 .debug_frame   0x000028f8       0x28 /home/opt/microchip/xc32/v1.00/bin/../lib/gcc/pic32mx/4.5.1/../../../../pic32mx/lib/libmchp_peripheral_32MX440F128H.a(int_enable_mv_int_lib.o)
 .debug_frame   0x00002920       0xa0 /home/opt/microchip/xc32/v1.00/bin/../lib/gcc/pic32mx/4.5.1/../../../../pic32mx/lib/libmchp_peripheral_32MX440F128H.a(int_tbl_lib.o)
 .debug_frame   0x000029c0       0x30 /home/opt/microchip/xc32/v1.00/bin/../lib/gcc/pic32mx/4.5.1/../../../../pic32mx/lib/libmchp_peripheral_32MX440F128H.a(spi_chn_getc_lib.o)
 .debug_frame   0x000029f0       0x40 /home/opt/microchip/xc32/v1.00/bin/../lib/gcc/pic32mx/4.5.1/../../../../pic32mx/lib/libmchp_peripheral_32MX440F128H.a(spi_chn_putc_lib.o)
 .debug_frame   0x00002a30       0x20 /home/opt/microchip/xc32/v1.00/bin/../lib/gcc/pic32mx/4.5.1/../../../../pic32mx/lib/libmchp_peripheral_32MX440F128H.a(spi_open_spi2_lib_legacy.o)
 .debug_frame   0x00002a50       0x28 /home/opt/microchip/xc32/v1.00/bin/../lib/gcc/pic32mx/4.5.1/../../../../pic32mx/lib/libmchp_peripheral_32MX440F128H.a(nvm_erase_page_lib.o)
 .debug_frame   0x00002a78       0x28 /home/opt/microchip/xc32/v1.00/bin/../lib/gcc/pic32mx/4.5.1/../../../../pic32mx/lib/libmchp_peripheral_32MX440F128H.a(nvm_operation_lib.o)
 .debug_frame   0x00002aa0       0x28 /home/opt/microchip/xc32/v1.00/bin/../lib/gcc/pic32mx/4.5.1/../../../../pic32mx/lib/libmchp_peripheral_32MX440F128H.a(nvm_write_word_lib.o)
 .debug_frame   0x00002ac8       0x20 /home/opt/microchip/xc32/v1.00/bin/../lib/gcc/pic32mx/4.5.1/../../../../pic32mx/lib/libmchp_peripheral_32MX440F128H.a(port_set_pins_digital_out_lib.o)
 .debug_frame   0x00002ae8       0x20 /home/opt/microchip/xc32/v1.00/bin/../lib/gcc/pic32mx/4.5.1/../../../../pic32mx/lib/libmchp_peripheral_32MX440F128H.a(port_clear_bits_lib.o)
 .debug_frame   0x00002b08       0x20 /home/opt/microchip/xc32/v1.00/bin/../lib/gcc/pic32mx/4.5.1/../../../../pic32mx/lib/libmchp_peripheral_32MX440F128H.a(port_set_bits_lib.o)
 .debug_frame   0x00002b28       0x90 /home/opt/microchip/xc32/v1.00/bin/../lib/gcc/pic32mx/4.5.1/../../../../pic32mx/lib/libmchp_peripheral_32MX440F128H.a(uart_lib.o)

.debug_str      0x00000000     0x2d36
 *(.debug_str)
 .debug_str     0x00000000      0x117 build/default/debug/_ext/1487882678/usb_descriptors.o
 .debug_str     0x00000117      0x1cb build/default/debug/_ext/1487882678/usb_function_cdc.o
 .debug_str     0x000002e2      0x11a build/default/debug/_ext/1487882678/usb_fifo.o
 .debug_str     0x000003fc       0xf7 build/default/debug/_ext/1487882678/usb_callback.o
 .debug_str     0x000004f3       0xe2 build/default/debug/_ext/1487882678/usb_interrupt.o
 .debug_str     0x000005d5      0x2ab build/default/debug/_ext/1487882678/usb_device.o
 .debug_str     0x00000880       0xe2 build/default/debug/_ext/2118813141/Delay.o
 .debug_str     0x00000962       0xe2 build/default/debug/_ext/2118813141/FlashStorage.o
 .debug_str     0x00000a44       0xe9 build/default/debug/_ext/2118813141/HAL_P32.o
 .debug_str     0x00000b2d       0xe2 build/default/debug/_ext/2118813141/LED.o
 .debug_str     0x00000c0f       0xeb build/default/debug/_ext/2118813141/Tick.o
 .debug_str     0x00000cfa      0x100 build/default/debug/_ext/2118813141/Bowler_UART_HAL.o
 .debug_str     0x00000dfa       0xe2 build/default/debug/_ext/2118813141/UART.o
 .debug_str     0x00000edc      0x15f build/default/debug/_ext/2118813141/ADC.o
 .debug_str     0x0000103b       0xe2 build/default/debug/_ext/2118813141/Bowler_USB_HAL.o
 .debug_str     0x0000111d       0xe9 build/default/debug/_ext/1080174469/Bowler_Helper.o
 .debug_str     0x00001206       0xc7 build/default/debug/_ext/1080174469/AbstractPID.o
 .debug_str     0x000012cd       0xe2 build/default/debug/_ext/1080174469/Bowler_Stack_Callback.o
 .debug_str     0x000013af      0x126 build/default/debug/_ext/1080174469/FIFO.o
 .debug_str     0x000014d5       0xe2 build/default/debug/_ext/1080174469/Bowler_RPC_Process.o
 .debug_str     0x000015b7       0xee build/default/debug/_ext/1080174469/Bowler_Transport.o
 .debug_str     0x000016a5       0xeb build/default/debug/_ext/1080174469/Debug.o
 .debug_str     0x00001790       0xe2 build/default/debug/_ext/1080174469/Scheduler.o
 .debug_str     0x00001872       0xf3 build/default/debug/_ext/1080174469/Bowler_Server.o
 .debug_str     0x00001965      0x109 build/default/debug/_ext/1080174469/Namespace_bcs_core.o
 .debug_str     0x00001a6e       0xe2 build/default/debug/_ext/1080174469/Namespace_bcs_pid.o
 .debug_str     0x00001b50       0xeb build/default/debug/_ext/1080174469/Namespace_bcs_rpc.o
 .debug_str     0x00001c3b       0xe2 build/default/debug/_ext/711791526/SPIClient.o
 .debug_str     0x00001d1d      0x127 build/default/debug/_ext/711791526/main.o
 .debug_str     0x00001e44       0xfb build/default/debug/_ext/711791526/Callbacks.o
 .debug_str     0x00001f3f       0xe2 build/default/debug/_ext/711791526/UpstreamPackets.o
 .debug_str     0x00002021      0x18a build/default/debug/_ext/711791526/AS5055.o
 .debug_str     0x000021ab       0xf2 build/default/debug/_ext/711791526/PID.o
 .debug_str     0x0000229d      0x187 build/default/debug/_ext/711791526/Servo.o
 .debug_str     0x00002424       0xf6 build/default/debug/_ext/711791526/StepperSim.o
 .debug_str     0x0000251a      0x152 build/default/debug/_ext/711791526/ForgeHeater.o
 .debug_str     0x0000266c      0x16a build/default/debug/_ext/711791526/CartesianController.o
 .debug_str     0x000027d6       0xe2 build/default/debug/_ext/711791526/DeltaKinematics.o
 .debug_str     0x000028b8       0xe2 build/default/debug/_ext/711791526/delta.o
 .debug_str     0x0000299a       0xe2 build/default/debug/_ext/711791526/Calibration.o
 .debug_str     0x00002a7c       0xe2 build/default/debug/_ext/711791526/MotionTest.o
 .debug_str     0x00002b5e       0xe2 build/default/debug/_ext/664674842/Namespace_bcs_cartesian.o
 .debug_str     0x00002c40       0xf6 build/default/debug/_ext/711791526/servoCalibration.o
 .debug_str     0x00002d36        0x0 /home/opt/microchip/xc32/v1.00/bin/../lib/gcc/pic32mx/4.5.1/libgcc.a(floatunsisf.o)
 .debug_str     0x00002d36        0x0 /home/opt/microchip/xc32/v1.00/bin/../lib/gcc/pic32mx/4.5.1/../../../../pic32mx/lib/libc.a(default-bootstrap-exception-handler.o)
 .debug_str     0x00002d36        0x0 /home/opt/microchip/xc32/v1.00/bin/../lib/gcc/pic32mx/4.5.1/../../../../pic32mx/lib/libc.a(default-on-reset.o)
 .debug_str     0x00002d36        0x0 /home/opt/microchip/xc32/v1.00/bin/../lib/gcc/pic32mx/4.5.1/../../../../pic32mx/lib/libc.a(default-on-bootstrap.o)
 .debug_str     0x00002d36        0x0 /home/opt/microchip/xc32/v1.00/bin/../lib/gcc/pic32mx/4.5.1/../../../../pic32mx/lib/libm.a(w_sqrtf.o)
 .debug_str     0x00002d36        0x0 /home/opt/microchip/xc32/v1.00/bin/../lib/gcc/pic32mx/4.5.1/../../../../pic32mx/lib/libm.a(s_lib_ver.o)
 .debug_str     0x00002d36        0x0 /home/opt/microchip/xc32/v1.00/bin/../lib/gcc/pic32mx/4.5.1/../../../../pic32mx/lib/libc.a(errno.o)
 .debug_str     0x00002d36        0x0 /home/opt/microchip/xc32/v1.00/bin/../lib/gcc/pic32mx/4.5.1/../../../../pic32mx/lib/libmchp_peripheral_32MX440F128H.a(pcache.o)
 .debug_str     0x00002d36        0x0 /home/opt/microchip/xc32/v1.00/bin/../lib/gcc/pic32mx/4.5.1/../../../../pic32mx/lib/libmchp_peripheral_32MX440F128H.a(int_enable_interrupts_lib.o)
 .debug_str     0x00002d36        0x0 /home/opt/microchip/xc32/v1.00/bin/../lib/gcc/pic32mx/4.5.1/../../../../pic32mx/lib/libmchp_peripheral_32MX440F128H.a(int_disable_interrupts_lib.o)
 .debug_str     0x00002d36        0x0 /home/opt/microchip/xc32/v1.00/bin/../lib/gcc/pic32mx/4.5.1/../../../../pic32mx/lib/libmchp_peripheral_32MX440F128H.a(int_restore_interrupts_lib.o)
 .debug_str     0x00002d36        0x0 /home/opt/microchip/xc32/v1.00/bin/../lib/gcc/pic32mx/4.5.1/../../../../pic32mx/lib/libmchp_peripheral_32MX440F128H.a(int_enable_mv_int_lib.o)
 .debug_str     0x00002d36        0x0 /home/opt/microchip/xc32/v1.00/bin/../lib/gcc/pic32mx/4.5.1/../../../../pic32mx/lib/libmchp_peripheral_32MX440F128H.a(int_tbl_lib.o)
 .debug_str     0x00002d36        0x0 /home/opt/microchip/xc32/v1.00/bin/../lib/gcc/pic32mx/4.5.1/../../../../pic32mx/lib/libmchp_peripheral_32MX440F128H.a(spi_chn_getc_lib.o)
 .debug_str     0x00002d36        0x0 /home/opt/microchip/xc32/v1.00/bin/../lib/gcc/pic32mx/4.5.1/../../../../pic32mx/lib/libmchp_peripheral_32MX440F128H.a(spi_chn_putc_lib.o)
 .debug_str     0x00002d36        0x0 /home/opt/microchip/xc32/v1.00/bin/../lib/gcc/pic32mx/4.5.1/../../../../pic32mx/lib/libmchp_peripheral_32MX440F128H.a(spi_map_tbl_libp.o)
 .debug_str     0x00002d36        0x0 /home/opt/microchip/xc32/v1.00/bin/../lib/gcc/pic32mx/4.5.1/../../../../pic32mx/lib/libmchp_peripheral_32MX440F128H.a(spi_open_spi2_lib_legacy.o)
 .debug_str     0x00002d36        0x0 /home/opt/microchip/xc32/v1.00/bin/../lib/gcc/pic32mx/4.5.1/../../../../pic32mx/lib/libmchp_peripheral_32MX440F128H.a(spi_brg_tbl_lib_legacy.o)
 .debug_str     0x00002d36        0x0 /home/opt/microchip/xc32/v1.00/bin/../lib/gcc/pic32mx/4.5.1/../../../../pic32mx/lib/libmchp_peripheral_32MX440F128H.a(nvm_erase_page_lib.o)
 .debug_str     0x00002d36        0x0 /home/opt/microchip/xc32/v1.00/bin/../lib/gcc/pic32mx/4.5.1/../../../../pic32mx/lib/libmchp_peripheral_32MX440F128H.a(nvm_operation_lib.o)
 .debug_str     0x00002d36        0x0 /home/opt/microchip/xc32/v1.00/bin/../lib/gcc/pic32mx/4.5.1/../../../../pic32mx/lib/libmchp_peripheral_32MX440F128H.a(nvm_write_word_lib.o)
 .debug_str     0x00002d36        0x0 /home/opt/microchip/xc32/v1.00/bin/../lib/gcc/pic32mx/4.5.1/../../../../pic32mx/lib/libmchp_peripheral_32MX440F128H.a(port_set_pins_digital_out_lib.o)
 .debug_str     0x00002d36        0x0 /home/opt/microchip/xc32/v1.00/bin/../lib/gcc/pic32mx/4.5.1/../../../../pic32mx/lib/libmchp_peripheral_32MX440F128H.a(port_clear_bits_lib.o)
 .debug_str     0x00002d36        0x0 /home/opt/microchip/xc32/v1.00/bin/../lib/gcc/pic32mx/4.5.1/../../../../pic32mx/lib/libmchp_peripheral_32MX440F128H.a(port_set_bits_lib.o)
 .debug_str     0x00002d36        0x0 /home/opt/microchip/xc32/v1.00/bin/../lib/gcc/pic32mx/4.5.1/../../../../pic32mx/lib/libmchp_peripheral_32MX440F128H.a(_ports_tbl_libp.o)
 .debug_str     0x00002d36        0x0 /home/opt/microchip/xc32/v1.00/bin/../lib/gcc/pic32mx/4.5.1/../../../../pic32mx/lib/libmchp_peripheral_32MX440F128H.a(uart_lib.o)

.debug_loc      0x00000000     0x38f9
 *(.debug_loc)
 .debug_loc     0x00000000       0x84 build/default/debug/_ext/1487882678/usb_descriptors.o
 .debug_loc     0x00000084      0x160 build/default/debug/_ext/1487882678/usb_function_cdc.o
 .debug_loc     0x000001e4      0x210 build/default/debug/_ext/1487882678/usb_fifo.o
 .debug_loc     0x000003f4      0x1b8 build/default/debug/_ext/1487882678/usb_callback.o
 .debug_loc     0x000005ac      0x47a build/default/debug/_ext/1487882678/usb_device.o
 .debug_loc     0x00000a26       0xdc build/default/debug/_ext/2118813141/Delay.o
 .debug_loc     0x00000b02      0x1b8 build/default/debug/_ext/2118813141/FlashStorage.o
 .debug_loc     0x00000cba      0x1b8 build/default/debug/_ext/2118813141/HAL_P32.o
 .debug_loc     0x00000e72       0xdc build/default/debug/_ext/2118813141/LED.o
 .debug_loc     0x00000f4e      0x134 build/default/debug/_ext/2118813141/Tick.o
 .debug_loc     0x00001082      0x1e4 build/default/debug/_ext/2118813141/Bowler_UART_HAL.o
 .debug_loc     0x00001266       0x58 build/default/debug/_ext/2118813141/UART.o
 .debug_loc     0x000012be       0x84 build/default/debug/_ext/2118813141/ADC.o
 .debug_loc     0x00001342       0x84 build/default/debug/_ext/2118813141/Bowler_USB_HAL.o
 .debug_loc     0x000013c6      0x294 build/default/debug/_ext/1080174469/Bowler_Helper.o
 .debug_loc     0x0000165a      0x65e build/default/debug/_ext/1080174469/AbstractPID.o
 .debug_loc     0x00001cb8      0x2ec build/default/debug/_ext/1080174469/FIFO.o
 .debug_loc     0x00001fa4       0x58 build/default/debug/_ext/1080174469/Bowler_RPC_Process.o
 .debug_loc     0x00001ffc      0x160 build/default/debug/_ext/1080174469/Bowler_Transport.o
 .debug_loc     0x0000215c      0x2ec build/default/debug/_ext/1080174469/Debug.o
 .debug_loc     0x00002448       0x2c build/default/debug/_ext/1080174469/Scheduler.o
 .debug_loc     0x00002474       0xb0 build/default/debug/_ext/1080174469/Bowler_Server.o
 .debug_loc     0x00002524      0x1e4 build/default/debug/_ext/1080174469/Namespace_bcs_core.o
 .debug_loc     0x00002708       0x58 build/default/debug/_ext/1080174469/Namespace_bcs_pid.o
 .debug_loc     0x00002760       0x84 build/default/debug/_ext/1080174469/Namespace_bcs_rpc.o
 .debug_loc     0x000027e4       0x58 build/default/debug/_ext/711791526/SPIClient.o
 .debug_loc     0x0000283c      0x10a build/default/debug/_ext/711791526/main.o
 .debug_loc     0x00002946       0x84 build/default/debug/_ext/711791526/Callbacks.o
 .debug_loc     0x000029ca       0x84 build/default/debug/_ext/711791526/UpstreamPackets.o
 .debug_loc     0x00002a4e      0x210 build/default/debug/_ext/711791526/AS5055.o
 .debug_loc     0x00002c5e      0x1e4 build/default/debug/_ext/711791526/PID.o
 .debug_loc     0x00002e42      0x296 build/default/debug/_ext/711791526/Servo.o
 .debug_loc     0x000030d8       0x86 build/default/debug/_ext/711791526/StepperSim.o
 .debug_loc     0x0000315e      0x136 build/default/debug/_ext/711791526/ForgeHeater.o
 .debug_loc     0x00003294      0x372 build/default/debug/_ext/711791526/CartesianController.o
 .debug_loc     0x00003606       0xde build/default/debug/_ext/711791526/delta.o
 .debug_loc     0x000036e4       0x58 build/default/debug/_ext/664674842/Namespace_bcs_cartesian.o
 .debug_loc     0x0000373c      0x160 build/default/debug/_ext/711791526/servoCalibration.o
 .debug_loc     0x0000389c       0x5d /home/opt/microchip/xc32/v1.00/bin/../lib/gcc/pic32mx/4.5.1/libgcc.a(floatunsisf.o)

.debug_macinfo
 *(.debug_macinfo)

.debug_weaknames
 *(.debug_weaknames)

.debug_funcnames
 *(.debug_funcnames)

.debug_typenames
 *(.debug_typenames)

.debug_varnames
 *(.debug_varnames)

.debug_pubtypes
                0x00000000     0x3a74
 *(.debug_pubtypes)
 .debug_pubtypes
                0x00000000      0x104 build/default/debug/_ext/1487882678/usb_descriptors.o
 .debug_pubtypes
                0x00000104      0x236 build/default/debug/_ext/1487882678/usb_function_cdc.o
 .debug_pubtypes
                0x0000033a      0x1c3 build/default/debug/_ext/1487882678/usb_fifo.o
 .debug_pubtypes
                0x000004fd      0x167 build/default/debug/_ext/1487882678/usb_callback.o
 .debug_pubtypes
                0x00000664       0xbd build/default/debug/_ext/1487882678/usb_interrupt.o
 .debug_pubtypes
                0x00000721      0x287 build/default/debug/_ext/1487882678/usb_device.o
 .debug_pubtypes
                0x000009a8       0xd0 build/default/debug/_ext/2118813141/Delay.o
 .debug_pubtypes
                0x00000a78      0x109 build/default/debug/_ext/2118813141/FlashStorage.o
 .debug_pubtypes
                0x00000b81      0x19d build/default/debug/_ext/2118813141/HAL_P32.o
 .debug_pubtypes
                0x00000d1e       0xc6 build/default/debug/_ext/2118813141/LED.o
 .debug_pubtypes
                0x00000de4       0xc7 build/default/debug/_ext/2118813141/Tick.o
 .debug_pubtypes
                0x00000eab      0x175 build/default/debug/_ext/2118813141/Bowler_UART_HAL.o
 .debug_pubtypes
                0x00001020       0xe9 build/default/debug/_ext/2118813141/UART.o
 .debug_pubtypes
                0x00001109      0x128 build/default/debug/_ext/2118813141/ADC.o
 .debug_pubtypes
                0x00001231       0xe2 build/default/debug/_ext/2118813141/Bowler_USB_HAL.o
 .debug_pubtypes
                0x00001313      0x192 build/default/debug/_ext/1080174469/Bowler_Helper.o
 .debug_pubtypes
                0x000014a5      0x160 build/default/debug/_ext/1080174469/AbstractPID.o
 .debug_pubtypes
                0x00001605       0xbd build/default/debug/_ext/1080174469/Bowler_Stack_Callback.o
 .debug_pubtypes
                0x000016c2      0x1b8 build/default/debug/_ext/1080174469/FIFO.o
 .debug_pubtypes
                0x0000187a      0x1c0 build/default/debug/_ext/1080174469/Bowler_RPC_Process.o
 .debug_pubtypes
                0x00001a3a      0x18c build/default/debug/_ext/1080174469/Bowler_Transport.o
 .debug_pubtypes
                0x00001bc6      0x16f build/default/debug/_ext/1080174469/Debug.o
 .debug_pubtypes
                0x00001d35       0xdd build/default/debug/_ext/1080174469/Scheduler.o
 .debug_pubtypes
                0x00001e12      0x1e8 build/default/debug/_ext/1080174469/Bowler_Server.o
 .debug_pubtypes
                0x00001ffa      0x1b0 build/default/debug/_ext/1080174469/Namespace_bcs_core.o
 .debug_pubtypes
                0x000021aa      0x19f build/default/debug/_ext/1080174469/Namespace_bcs_pid.o
 .debug_pubtypes
                0x00002349      0x1cd build/default/debug/_ext/1080174469/Namespace_bcs_rpc.o
 .debug_pubtypes
                0x00002516       0xc6 build/default/debug/_ext/711791526/SPIClient.o
 .debug_pubtypes
                0x000025dc      0x21f build/default/debug/_ext/711791526/main.o
 .debug_pubtypes
                0x000027fb      0x150 build/default/debug/_ext/711791526/Callbacks.o
 .debug_pubtypes
                0x0000294b      0x157 build/default/debug/_ext/711791526/UpstreamPackets.o
 .debug_pubtypes
                0x00002aa2      0x278 build/default/debug/_ext/711791526/AS5055.o
 .debug_pubtypes
                0x00002d1a      0x1ea build/default/debug/_ext/711791526/PID.o
 .debug_pubtypes
                0x00002f04      0x168 build/default/debug/_ext/711791526/Servo.o
 .debug_pubtypes
                0x0000306c       0xe1 build/default/debug/_ext/711791526/StepperSim.o
 .debug_pubtypes
                0x0000314d      0x102 build/default/debug/_ext/711791526/ForgeHeater.o
 .debug_pubtypes
                0x0000324f      0x201 build/default/debug/_ext/711791526/CartesianController.o
 .debug_pubtypes
                0x00003450       0xbd build/default/debug/_ext/711791526/DeltaKinematics.o
 .debug_pubtypes
                0x0000350d       0xbd build/default/debug/_ext/711791526/delta.o
 .debug_pubtypes
                0x000035ca       0xbd build/default/debug/_ext/711791526/Calibration.o
 .debug_pubtypes
                0x00003687       0xbd build/default/debug/_ext/711791526/MotionTest.o
 .debug_pubtypes
                0x00003744      0x1c0 build/default/debug/_ext/664674842/Namespace_bcs_cartesian.o
 .debug_pubtypes
                0x00003904      0x13c build/default/debug/_ext/711791526/servoCalibration.o
 .debug_pubtypes
                0x00003a40       0x34 /home/opt/microchip/xc32/v1.00/bin/../lib/gcc/pic32mx/4.5.1/libgcc.a(floatunsisf.o)

.debug_ranges   0x00000000      0x208
 *(.debug_ranges)
 .debug_ranges  0x00000000       0x18 build/default/debug/_ext/1487882678/usb_device.o
 .debug_ranges  0x00000018       0x18 build/default/debug/_ext/1080174469/Bowler_Transport.o
 .debug_ranges  0x00000030       0x10 /home/opt/microchip/xc32/v1.00/bin/../lib/gcc/pic32mx/4.5.1/../../../../pic32mx/lib/libc.a(default-bootstrap-exception-handler.o)
 .debug_ranges  0x00000040       0x10 /home/opt/microchip/xc32/v1.00/bin/../lib/gcc/pic32mx/4.5.1/../../../../pic32mx/lib/libc.a(default-on-reset.o)
 .debug_ranges  0x00000050       0x10 /home/opt/microchip/xc32/v1.00/bin/../lib/gcc/pic32mx/4.5.1/../../../../pic32mx/lib/libc.a(default-on-bootstrap.o)
 .debug_ranges  0x00000060       0x10 /home/opt/microchip/xc32/v1.00/bin/../lib/gcc/pic32mx/4.5.1/../../../../pic32mx/lib/libm.a(w_sqrtf.o)
 .debug_ranges  0x00000070       0x18 /home/opt/microchip/xc32/v1.00/bin/../lib/gcc/pic32mx/4.5.1/../../../../pic32mx/lib/libmchp_peripheral_32MX440F128H.a(pcache.o)
 .debug_ranges  0x00000088       0x10 /home/opt/microchip/xc32/v1.00/bin/../lib/gcc/pic32mx/4.5.1/../../../../pic32mx/lib/libmchp_peripheral_32MX440F128H.a(int_enable_interrupts_lib.o)
 .debug_ranges  0x00000098       0x10 /home/opt/microchip/xc32/v1.00/bin/../lib/gcc/pic32mx/4.5.1/../../../../pic32mx/lib/libmchp_peripheral_32MX440F128H.a(int_disable_interrupts_lib.o)
 .debug_ranges  0x000000a8       0x10 /home/opt/microchip/xc32/v1.00/bin/../lib/gcc/pic32mx/4.5.1/../../../../pic32mx/lib/libmchp_peripheral_32MX440F128H.a(int_restore_interrupts_lib.o)
 .debug_ranges  0x000000b8       0x10 /home/opt/microchip/xc32/v1.00/bin/../lib/gcc/pic32mx/4.5.1/../../../../pic32mx/lib/libmchp_peripheral_32MX440F128H.a(int_enable_mv_int_lib.o)
 .debug_ranges  0x000000c8       0x50 /home/opt/microchip/xc32/v1.00/bin/../lib/gcc/pic32mx/4.5.1/../../../../pic32mx/lib/libmchp_peripheral_32MX440F128H.a(int_tbl_lib.o)
 .debug_ranges  0x00000118       0x18 /home/opt/microchip/xc32/v1.00/bin/../lib/gcc/pic32mx/4.5.1/../../../../pic32mx/lib/libmchp_peripheral_32MX440F128H.a(spi_chn_getc_lib.o)
 .debug_ranges  0x00000130       0x20 /home/opt/microchip/xc32/v1.00/bin/../lib/gcc/pic32mx/4.5.1/../../../../pic32mx/lib/libmchp_peripheral_32MX440F128H.a(spi_chn_putc_lib.o)
 .debug_ranges  0x00000150       0x10 /home/opt/microchip/xc32/v1.00/bin/../lib/gcc/pic32mx/4.5.1/../../../../pic32mx/lib/libmchp_peripheral_32MX440F128H.a(spi_open_spi2_lib_legacy.o)
 .debug_ranges  0x00000160       0x10 /home/opt/microchip/xc32/v1.00/bin/../lib/gcc/pic32mx/4.5.1/../../../../pic32mx/lib/libmchp_peripheral_32MX440F128H.a(nvm_erase_page_lib.o)
 .debug_ranges  0x00000170       0x10 /home/opt/microchip/xc32/v1.00/bin/../lib/gcc/pic32mx/4.5.1/../../../../pic32mx/lib/libmchp_peripheral_32MX440F128H.a(nvm_operation_lib.o)
 .debug_ranges  0x00000180       0x10 /home/opt/microchip/xc32/v1.00/bin/../lib/gcc/pic32mx/4.5.1/../../../../pic32mx/lib/libmchp_peripheral_32MX440F128H.a(nvm_write_word_lib.o)
 .debug_ranges  0x00000190       0x10 /home/opt/microchip/xc32/v1.00/bin/../lib/gcc/pic32mx/4.5.1/../../../../pic32mx/lib/libmchp_peripheral_32MX440F128H.a(port_set_pins_digital_out_lib.o)
 .debug_ranges  0x000001a0       0x10 /home/opt/microchip/xc32/v1.00/bin/../lib/gcc/pic32mx/4.5.1/../../../../pic32mx/lib/libmchp_peripheral_32MX440F128H.a(port_clear_bits_lib.o)
 .debug_ranges  0x000001b0       0x10 /home/opt/microchip/xc32/v1.00/bin/../lib/gcc/pic32mx/4.5.1/../../../../pic32mx/lib/libmchp_peripheral_32MX440F128H.a(port_set_bits_lib.o)
 .debug_ranges  0x000001c0       0x48 /home/opt/microchip/xc32/v1.00/bin/../lib/gcc/pic32mx/4.5.1/../../../../pic32mx/lib/libmchp_peripheral_32MX440F128H.a(uart_lib.o)

.gnu.attributes
                0x00000000       0x10
 *(.gnu.attributes)
 .gnu.attributes
                0x00000000       0x10 build/default/debug/_ext/1487882678/usb_descriptors.o
 .gnu.attributes
                0x00000010       0x10 build/default/debug/_ext/1487882678/usb_function_cdc.o
 .gnu.attributes
                0x00000020       0x10 build/default/debug/_ext/1487882678/usb_fifo.o
 .gnu.attributes
                0x00000030       0x10 build/default/debug/_ext/1487882678/usb_callback.o
 .gnu.attributes
                0x00000040       0x10 build/default/debug/_ext/1487882678/usb_interrupt.o
 .gnu.attributes
                0x00000050       0x10 build/default/debug/_ext/1487882678/usb_device.o
 .gnu.attributes
                0x00000060       0x10 build/default/debug/_ext/2118813141/Delay.o
 .gnu.attributes
                0x00000070       0x10 build/default/debug/_ext/2118813141/FlashStorage.o
 .gnu.attributes
                0x00000080       0x10 build/default/debug/_ext/2118813141/HAL_P32.o
 .gnu.attributes
                0x00000090       0x10 build/default/debug/_ext/2118813141/LED.o
 .gnu.attributes
                0x000000a0       0x10 build/default/debug/_ext/2118813141/Tick.o
 .gnu.attributes
                0x000000b0       0x10 build/default/debug/_ext/2118813141/Bowler_UART_HAL.o
 .gnu.attributes
                0x000000c0       0x10 build/default/debug/_ext/2118813141/UART.o
 .gnu.attributes
                0x000000d0       0x10 build/default/debug/_ext/2118813141/ADC.o
 .gnu.attributes
                0x000000e0       0x10 build/default/debug/_ext/2118813141/Bowler_USB_HAL.o
 .gnu.attributes
                0x000000f0       0x10 build/default/debug/_ext/1080174469/Bowler_Helper.o
 .gnu.attributes
                0x00000100       0x10 build/default/debug/_ext/1080174469/AbstractPID.o
 .gnu.attributes
                0x00000110       0x10 build/default/debug/_ext/1080174469/Bowler_Stack_Callback.o
 .gnu.attributes
                0x00000120       0x10 build/default/debug/_ext/1080174469/FIFO.o
 .gnu.attributes
                0x00000130       0x10 build/default/debug/_ext/1080174469/Bowler_RPC_Process.o
 .gnu.attributes
                0x00000140       0x10 build/default/debug/_ext/1080174469/Bowler_Transport.o
 .gnu.attributes
                0x00000150       0x10 build/default/debug/_ext/1080174469/Debug.o
 .gnu.attributes
                0x00000160       0x10 build/default/debug/_ext/1080174469/Scheduler.o
 .gnu.attributes
                0x00000170       0x10 build/default/debug/_ext/1080174469/Bowler_Server.o
 .gnu.attributes
                0x00000180       0x10 build/default/debug/_ext/1080174469/Namespace_bcs_core.o
 .gnu.attributes
                0x00000190       0x10 build/default/debug/_ext/1080174469/Namespace_bcs_pid.o
 .gnu.attributes
                0x000001a0       0x10 build/default/debug/_ext/1080174469/Namespace_bcs_rpc.o
 .gnu.attributes
                0x000001b0       0x10 build/default/debug/_ext/711791526/SPIClient.o
 .gnu.attributes
                0x000001c0       0x10 build/default/debug/_ext/711791526/main.o
 .gnu.attributes
                0x000001d0       0x10 build/default/debug/_ext/711791526/Callbacks.o
 .gnu.attributes
                0x000001e0       0x10 build/default/debug/_ext/711791526/UpstreamPackets.o
 .gnu.attributes
                0x000001f0       0x10 build/default/debug/_ext/711791526/AS5055.o
 .gnu.attributes
                0x00000200       0x10 build/default/debug/_ext/711791526/PID.o
 .gnu.attributes
                0x00000210       0x10 build/default/debug/_ext/711791526/Servo.o
 .gnu.attributes
                0x00000220       0x10 build/default/debug/_ext/711791526/StepperSim.o
 .gnu.attributes
                0x00000230       0x10 build/default/debug/_ext/711791526/ForgeHeater.o
 .gnu.attributes
                0x00000240       0x10 build/default/debug/_ext/711791526/CartesianController.o
 .gnu.attributes
                0x00000250       0x10 build/default/debug/_ext/711791526/DeltaKinematics.o
 .gnu.attributes
                0x00000260       0x10 build/default/debug/_ext/711791526/delta.o
 .gnu.attributes
                0x00000270       0x10 build/default/debug/_ext/711791526/Calibration.o
 .gnu.attributes
                0x00000280       0x10 build/default/debug/_ext/711791526/MotionTest.o
 .gnu.attributes
                0x00000290       0x10 build/default/debug/_ext/664674842/Namespace_bcs_cartesian.o
 .gnu.attributes
                0x000002a0       0x10 build/default/debug/_ext/711791526/servoCalibration.o
 .gnu.attributes
                0x000002b0       0x10 /home/opt/microchip/xc32/v1.00/bin/../lib/gcc/pic32mx/4.5.1/libgcc.a(floatunsisf.o)
 .gnu.attributes
                0x000002c0       0x10 /home/opt/microchip/xc32/v1.00/bin/../lib/gcc/pic32mx/4.5.1/../../../../pic32mx/lib/libc.a(default-bootstrap-exception-handler.o)
 .gnu.attributes
                0x000002d0       0x10 /home/opt/microchip/xc32/v1.00/bin/../lib/gcc/pic32mx/4.5.1/../../../../pic32mx/lib/libc.a(default-on-reset.o)
 .gnu.attributes
                0x000002e0       0x10 /home/opt/microchip/xc32/v1.00/bin/../lib/gcc/pic32mx/4.5.1/../../../../pic32mx/lib/libc.a(default-on-bootstrap.o)
 .gnu.attributes
                0x000002f0       0x10 /home/opt/microchip/xc32/v1.00/bin/../lib/gcc/pic32mx/4.5.1/../../../../pic32mx/lib/libm.a(w_sqrtf.o)
 .gnu.attributes
                0x00000300       0x10 /home/opt/microchip/xc32/v1.00/bin/../lib/gcc/pic32mx/4.5.1/../../../../pic32mx/lib/libm.a(s_lib_ver.o)
 .gnu.attributes
                0x00000310       0x10 /home/opt/microchip/xc32/v1.00/bin/../lib/gcc/pic32mx/4.5.1/../../../../pic32mx/lib/libc.a(errno.o)
 .gnu.attributes
                0x00000320       0x10 /home/opt/microchip/xc32/v1.00/bin/../lib/gcc/pic32mx/4.5.1/../../../../pic32mx/lib/libmchp_peripheral_32MX440F128H.a(pcache.o)
 .gnu.attributes
                0x00000330       0x10 /home/opt/microchip/xc32/v1.00/bin/../lib/gcc/pic32mx/4.5.1/../../../../pic32mx/lib/libmchp_peripheral_32MX440F128H.a(int_enable_interrupts_lib.o)
 .gnu.attributes
                0x00000340       0x10 /home/opt/microchip/xc32/v1.00/bin/../lib/gcc/pic32mx/4.5.1/../../../../pic32mx/lib/libmchp_peripheral_32MX440F128H.a(int_disable_interrupts_lib.o)
 .gnu.attributes
                0x00000350       0x10 /home/opt/microchip/xc32/v1.00/bin/../lib/gcc/pic32mx/4.5.1/../../../../pic32mx/lib/libmchp_peripheral_32MX440F128H.a(int_restore_interrupts_lib.o)
 .gnu.attributes
                0x00000360       0x10 /home/opt/microchip/xc32/v1.00/bin/../lib/gcc/pic32mx/4.5.1/../../../../pic32mx/lib/libmchp_peripheral_32MX440F128H.a(int_enable_mv_int_lib.o)
 .gnu.attributes
                0x00000370       0x10 /home/opt/microchip/xc32/v1.00/bin/../lib/gcc/pic32mx/4.5.1/../../../../pic32mx/lib/libmchp_peripheral_32MX440F128H.a(int_tbl_lib.o)
 .gnu.attributes
                0x00000380       0x10 /home/opt/microchip/xc32/v1.00/bin/../lib/gcc/pic32mx/4.5.1/../../../../pic32mx/lib/libmchp_peripheral_32MX440F128H.a(spi_chn_getc_lib.o)
 .gnu.attributes
                0x00000390       0x10 /home/opt/microchip/xc32/v1.00/bin/../lib/gcc/pic32mx/4.5.1/../../../../pic32mx/lib/libmchp_peripheral_32MX440F128H.a(spi_chn_putc_lib.o)
 .gnu.attributes
                0x000003a0       0x10 /home/opt/microchip/xc32/v1.00/bin/../lib/gcc/pic32mx/4.5.1/../../../../pic32mx/lib/libmchp_peripheral_32MX440F128H.a(spi_map_tbl_libp.o)
 .gnu.attributes
                0x000003b0       0x10 /home/opt/microchip/xc32/v1.00/bin/../lib/gcc/pic32mx/4.5.1/../../../../pic32mx/lib/libmchp_peripheral_32MX440F128H.a(spi_open_spi2_lib_legacy.o)
 .gnu.attributes
                0x000003c0       0x10 /home/opt/microchip/xc32/v1.00/bin/../lib/gcc/pic32mx/4.5.1/../../../../pic32mx/lib/libmchp_peripheral_32MX440F128H.a(spi_brg_tbl_lib_legacy.o)
 .gnu.attributes
                0x000003d0       0x10 /home/opt/microchip/xc32/v1.00/bin/../lib/gcc/pic32mx/4.5.1/../../../../pic32mx/lib/libmchp_peripheral_32MX440F128H.a(nvm_erase_page_lib.o)
 .gnu.attributes
                0x000003e0       0x10 /home/opt/microchip/xc32/v1.00/bin/../lib/gcc/pic32mx/4.5.1/../../../../pic32mx/lib/libmchp_peripheral_32MX440F128H.a(nvm_operation_lib.o)
 .gnu.attributes
                0x000003f0       0x10 /home/opt/microchip/xc32/v1.00/bin/../lib/gcc/pic32mx/4.5.1/../../../../pic32mx/lib/libmchp_peripheral_32MX440F128H.a(nvm_write_word_lib.o)
 .gnu.attributes
                0x00000400       0x10 /home/opt/microchip/xc32/v1.00/bin/../lib/gcc/pic32mx/4.5.1/../../../../pic32mx/lib/libmchp_peripheral_32MX440F128H.a(port_set_pins_digital_out_lib.o)
 .gnu.attributes
                0x00000410       0x10 /home/opt/microchip/xc32/v1.00/bin/../lib/gcc/pic32mx/4.5.1/../../../../pic32mx/lib/libmchp_peripheral_32MX440F128H.a(port_clear_bits_lib.o)
 .gnu.attributes
                0x00000420       0x10 /home/opt/microchip/xc32/v1.00/bin/../lib/gcc/pic32mx/4.5.1/../../../../pic32mx/lib/libmchp_peripheral_32MX440F128H.a(port_set_bits_lib.o)
 .gnu.attributes
                0x00000430       0x10 /home/opt/microchip/xc32/v1.00/bin/../lib/gcc/pic32mx/4.5.1/../../../../pic32mx/lib/libmchp_peripheral_32MX440F128H.a(_ports_tbl_libp.o)
 .gnu.attributes
                0x00000440       0x10 /home/opt/microchip/xc32/v1.00/bin/../lib/gcc/pic32mx/4.5.1/../../../../pic32mx/lib/libmchp_peripheral_32MX440F128H.a(uart_lib.o)
OUTPUT(dist/default/debug/ServoPrinterController.X.debug.elf elf32-tradlittlemips)
LOAD stack
LOAD data_init

.stack          0xa0005078      0x400
 .stack         0xa0005078      0x400 stack

.bss            0xa00037a8     0x12c4
 .bss           0xa00037a8      0x670 build/default/debug/_ext/2118813141/HAL_P32.o
 .bss           0xa0003e18      0x5ac build/default/debug/_ext/711791526/PID.o
 .bss           0xa00043c4      0x484 build/default/debug/_ext/1487882678/usb_fifo.o
 .bss           0xa0004848      0x224 build/default/debug/_ext/711791526/main.o

.data           0xa0000468      0x178
 .data          0xa0000468      0x178 build/default/debug/_ext/1080174469/Namespace_bcs_pid.o

.bss            0xa0004a6c      0x270
 .bss           0xa0004a6c      0x14c build/default/debug/_ext/711791526/UpstreamPackets.o
 .bss           0xa0004bb8      0x124 build/default/debug/_ext/2118813141/Bowler_UART_HAL.o

.data           0xa0004cdc      0x204
 .data          0xa0004cdc      0x104 build/default/debug/_ext/1487882678/usb_descriptors.o
                0xa0004cdc                device_dsc
                0xa0004cf0                configDescriptor1
                0xa0004d34                sd001
                0xa0004d68                sd002
                0xa0004d9c                sd003
                0xa0004dd0                USB_SD_Ptr
 .data          0xa0004de0      0x100 /home/opt/microchip/xc32/v1.00/bin/../lib/gcc/pic32mx/4.5.1/../../../../pic32mx/lib/libm.a(fparc32.o)

.bss            0xa0004ee0       0x80
 .bss           0xa0004ee0       0x80 build/default/debug/_ext/711791526/servoCalibration.o

.data           0xa0004f60       0xfc
 .data          0xa0004f60       0x48 build/default/debug/_ext/1080174469/Namespace_bcs_core.o
 .data          0xa0004fa8       0x48 build/default/debug/_ext/1080174469/Namespace_bcs_rpc.o
 .data          0xa0004ff0       0x48 build/default/debug/_ext/664674842/Namespace_bcs_cartesian.o
 .data          0xa0005038       0x24 /home/opt/microchip/xc32/v1.00/bin/../lib/gcc/pic32mx/4.5.1/../../../../pic32mx/lib/libm.a(sincof32.o)
                0xa0005038                _sincof
                0xa0005048                _coscof

.bss            0xa00005e0       0x10
 .bss           0xa00005e0       0x10 build/default/debug/_ext/711791526/ForgeHeater.o
                0xa00005e0                heaterDutty

.data.math_errhandling_flag
                0xa00005f0        0x4
 .data.math_errhandling_flag
                0xa00005f0        0x4 /home/opt/microchip/xc32/v1.00/bin/../lib/gcc/pic32mx/4.5.1/../../../../pic32mx/lib/libm.a(s_lib_ver.o)
                0xa00005f0                math_errhandling

.mdebug.abi32%z1
                0x00000000        0x0
 .mdebug.abi32  0x00000000        0x0 /home/opt/microchip/xc32/v1.00/bin/../lib/gcc/pic32mx/4.5.1/../../../../pic32mx/lib/libmchp_peripheral_32MX440F128H.a(uart_lib.o)

.bss%z2         0x00000000        0x0
 .bss           0x00000000        0x0 /home/opt/microchip/xc32/v1.00/bin/../lib/gcc/pic32mx/4.5.1/../../../../pic32mx/lib/libmchp_peripheral_32MX440F128H.a(uart_lib.o)

.data%z3        0x00000000        0x0
 .data          0x00000000        0x0 /home/opt/microchip/xc32/v1.00/bin/../lib/gcc/pic32mx/4.5.1/../../../../pic32mx/lib/libmchp_peripheral_32MX440F128H.a(uart_lib.o)

.mdebug.abi32%z4
                0x00000000        0x0
 .mdebug.abi32  0x00000000        0x0 /home/opt/microchip/xc32/v1.00/bin/../lib/gcc/pic32mx/4.5.1/../../../../pic32mx/lib/libmchp_peripheral_32MX440F128H.a(_ports_tbl_libp.o)

.bss%z5         0x00000000        0x0
 .bss           0x00000000        0x0 /home/opt/microchip/xc32/v1.00/bin/../lib/gcc/pic32mx/4.5.1/../../../../pic32mx/lib/libmchp_peripheral_32MX440F128H.a(_ports_tbl_libp.o)

.data%z6        0x00000000        0x0
 .data          0x00000000        0x0 /home/opt/microchip/xc32/v1.00/bin/../lib/gcc/pic32mx/4.5.1/../../../../pic32mx/lib/libmchp_peripheral_32MX440F128H.a(_ports_tbl_libp.o)

.mdebug.abi32%z7
                0x00000000        0x0
 .mdebug.abi32  0x00000000        0x0 /home/opt/microchip/xc32/v1.00/bin/../lib/gcc/pic32mx/4.5.1/../../../../pic32mx/lib/libmchp_peripheral_32MX440F128H.a(port_set_bits_lib.o)

.bss%z8         0x00000000        0x0
 .bss           0x00000000        0x0 /home/opt/microchip/xc32/v1.00/bin/../lib/gcc/pic32mx/4.5.1/../../../../pic32mx/lib/libmchp_peripheral_32MX440F128H.a(port_set_bits_lib.o)

.data%z9        0x00000000        0x0
 .data          0x00000000        0x0 /home/opt/microchip/xc32/v1.00/bin/../lib/gcc/pic32mx/4.5.1/../../../../pic32mx/lib/libmchp_peripheral_32MX440F128H.a(port_set_bits_lib.o)

.mdebug.abi32%z10
                0x00000000        0x0
 .mdebug.abi32  0x00000000        0x0 /home/opt/microchip/xc32/v1.00/bin/../lib/gcc/pic32mx/4.5.1/../../../../pic32mx/lib/libmchp_peripheral_32MX440F128H.a(port_clear_bits_lib.o)

.bss%z11        0x00000000        0x0
 .bss           0x00000000        0x0 /home/opt/microchip/xc32/v1.00/bin/../lib/gcc/pic32mx/4.5.1/../../../../pic32mx/lib/libmchp_peripheral_32MX440F128H.a(port_clear_bits_lib.o)

.data%z12       0x00000000        0x0
 .data          0x00000000        0x0 /home/opt/microchip/xc32/v1.00/bin/../lib/gcc/pic32mx/4.5.1/../../../../pic32mx/lib/libmchp_peripheral_32MX440F128H.a(port_clear_bits_lib.o)

.mdebug.abi32%z13
                0x00000000        0x0
 .mdebug.abi32  0x00000000        0x0 /home/opt/microchip/xc32/v1.00/bin/../lib/gcc/pic32mx/4.5.1/../../../../pic32mx/lib/libmchp_peripheral_32MX440F128H.a(port_set_pins_digital_out_lib.o)

.bss%z14        0x00000000        0x0
 .bss           0x00000000        0x0 /home/opt/microchip/xc32/v1.00/bin/../lib/gcc/pic32mx/4.5.1/../../../../pic32mx/lib/libmchp_peripheral_32MX440F128H.a(port_set_pins_digital_out_lib.o)

.data%z15       0x00000000        0x0
 .data          0x00000000        0x0 /home/opt/microchip/xc32/v1.00/bin/../lib/gcc/pic32mx/4.5.1/../../../../pic32mx/lib/libmchp_peripheral_32MX440F128H.a(port_set_pins_digital_out_lib.o)

.mdebug.abi32%z16
                0x00000000        0x0
 .mdebug.abi32  0x00000000        0x0 /home/opt/microchip/xc32/v1.00/bin/../lib/gcc/pic32mx/4.5.1/../../../../pic32mx/lib/libmchp_peripheral_32MX440F128H.a(nvm_write_word_lib.o)

.bss%z17        0x00000000        0x0
 .bss           0x00000000        0x0 /home/opt/microchip/xc32/v1.00/bin/../lib/gcc/pic32mx/4.5.1/../../../../pic32mx/lib/libmchp_peripheral_32MX440F128H.a(nvm_write_word_lib.o)

.data%z18       0x00000000        0x0
 .data          0x00000000        0x0 /home/opt/microchip/xc32/v1.00/bin/../lib/gcc/pic32mx/4.5.1/../../../../pic32mx/lib/libmchp_peripheral_32MX440F128H.a(nvm_write_word_lib.o)

.mdebug.abi32%z19
                0x00000000        0x0
 .mdebug.abi32  0x00000000        0x0 /home/opt/microchip/xc32/v1.00/bin/../lib/gcc/pic32mx/4.5.1/../../../../pic32mx/lib/libmchp_peripheral_32MX440F128H.a(nvm_operation_lib.o)

.bss%z20        0x00000000        0x0
 .bss           0x00000000        0x0 /home/opt/microchip/xc32/v1.00/bin/../lib/gcc/pic32mx/4.5.1/../../../../pic32mx/lib/libmchp_peripheral_32MX440F128H.a(nvm_operation_lib.o)

.data%z21       0x00000000        0x0
 .data          0x00000000        0x0 /home/opt/microchip/xc32/v1.00/bin/../lib/gcc/pic32mx/4.5.1/../../../../pic32mx/lib/libmchp_peripheral_32MX440F128H.a(nvm_operation_lib.o)

.mdebug.abi32%z22
                0x00000000        0x0
 .mdebug.abi32  0x00000000        0x0 /home/opt/microchip/xc32/v1.00/bin/../lib/gcc/pic32mx/4.5.1/../../../../pic32mx/lib/libmchp_peripheral_32MX440F128H.a(nvm_erase_page_lib.o)

.bss%z23        0x00000000        0x0
 .bss           0x00000000        0x0 /home/opt/microchip/xc32/v1.00/bin/../lib/gcc/pic32mx/4.5.1/../../../../pic32mx/lib/libmchp_peripheral_32MX440F128H.a(nvm_erase_page_lib.o)

.data%z24       0x00000000        0x0
 .data          0x00000000        0x0 /home/opt/microchip/xc32/v1.00/bin/../lib/gcc/pic32mx/4.5.1/../../../../pic32mx/lib/libmchp_peripheral_32MX440F128H.a(nvm_erase_page_lib.o)

.mdebug.abi32%z25
                0x00000000        0x0
 .mdebug.abi32  0x00000000        0x0 /home/opt/microchip/xc32/v1.00/bin/../lib/gcc/pic32mx/4.5.1/../../../../pic32mx/lib/libmchp_peripheral_32MX440F128H.a(spi_brg_tbl_lib_legacy.o)

.bss%z26        0x00000000        0x0
 .bss           0x00000000        0x0 /home/opt/microchip/xc32/v1.00/bin/../lib/gcc/pic32mx/4.5.1/../../../../pic32mx/lib/libmchp_peripheral_32MX440F128H.a(spi_brg_tbl_lib_legacy.o)

.data%z27       0x00000000        0x0
 .data          0x00000000        0x0 /home/opt/microchip/xc32/v1.00/bin/../lib/gcc/pic32mx/4.5.1/../../../../pic32mx/lib/libmchp_peripheral_32MX440F128H.a(spi_brg_tbl_lib_legacy.o)

.mdebug.abi32%z28
                0x00000000        0x0
 .mdebug.abi32  0x00000000        0x0 /home/opt/microchip/xc32/v1.00/bin/../lib/gcc/pic32mx/4.5.1/../../../../pic32mx/lib/libmchp_peripheral_32MX440F128H.a(spi_open_spi2_lib_legacy.o)

.bss%z29        0x00000000        0x0
 .bss           0x00000000        0x0 /home/opt/microchip/xc32/v1.00/bin/../lib/gcc/pic32mx/4.5.1/../../../../pic32mx/lib/libmchp_peripheral_32MX440F128H.a(spi_open_spi2_lib_legacy.o)

.data%z30       0x00000000        0x0
 .data          0x00000000        0x0 /home/opt/microchip/xc32/v1.00/bin/../lib/gcc/pic32mx/4.5.1/../../../../pic32mx/lib/libmchp_peripheral_32MX440F128H.a(spi_open_spi2_lib_legacy.o)

.mdebug.abi32%z31
                0x00000000        0x0
 .mdebug.abi32  0x00000000        0x0 /home/opt/microchip/xc32/v1.00/bin/../lib/gcc/pic32mx/4.5.1/../../../../pic32mx/lib/libmchp_peripheral_32MX440F128H.a(spi_map_tbl_libp.o)

.bss%z32        0x00000000        0x0
 .bss           0x00000000        0x0 /home/opt/microchip/xc32/v1.00/bin/../lib/gcc/pic32mx/4.5.1/../../../../pic32mx/lib/libmchp_peripheral_32MX440F128H.a(spi_map_tbl_libp.o)

.data%z33       0x00000000        0x0
 .data          0x00000000        0x0 /home/opt/microchip/xc32/v1.00/bin/../lib/gcc/pic32mx/4.5.1/../../../../pic32mx/lib/libmchp_peripheral_32MX440F128H.a(spi_map_tbl_libp.o)

.mdebug.abi32%z34
                0x00000000        0x0
 .mdebug.abi32  0x00000000        0x0 /home/opt/microchip/xc32/v1.00/bin/../lib/gcc/pic32mx/4.5.1/../../../../pic32mx/lib/libmchp_peripheral_32MX440F128H.a(spi_chn_putc_lib.o)

.bss%z35        0x00000000        0x0
 .bss           0x00000000        0x0 /home/opt/microchip/xc32/v1.00/bin/../lib/gcc/pic32mx/4.5.1/../../../../pic32mx/lib/libmchp_peripheral_32MX440F128H.a(spi_chn_putc_lib.o)

.data%z36       0x00000000        0x0
 .data          0x00000000        0x0 /home/opt/microchip/xc32/v1.00/bin/../lib/gcc/pic32mx/4.5.1/../../../../pic32mx/lib/libmchp_peripheral_32MX440F128H.a(spi_chn_putc_lib.o)

.mdebug.abi32%z37
                0x00000000        0x0
 .mdebug.abi32  0x00000000        0x0 /home/opt/microchip/xc32/v1.00/bin/../lib/gcc/pic32mx/4.5.1/../../../../pic32mx/lib/libmchp_peripheral_32MX440F128H.a(spi_chn_getc_lib.o)

.bss%z38        0x00000000        0x0
 .bss           0x00000000        0x0 /home/opt/microchip/xc32/v1.00/bin/../lib/gcc/pic32mx/4.5.1/../../../../pic32mx/lib/libmchp_peripheral_32MX440F128H.a(spi_chn_getc_lib.o)

.data%z39       0x00000000        0x0
 .data          0x00000000        0x0 /home/opt/microchip/xc32/v1.00/bin/../lib/gcc/pic32mx/4.5.1/../../../../pic32mx/lib/libmchp_peripheral_32MX440F128H.a(spi_chn_getc_lib.o)

.mdebug.abi32%z40
                0x00000000        0x0
 .mdebug.abi32  0x00000000        0x0 /home/opt/microchip/xc32/v1.00/bin/../lib/gcc/pic32mx/4.5.1/../../../../pic32mx/lib/libmchp_peripheral_32MX440F128H.a(int_tbl_lib.o)

.bss%z41        0x00000000        0x0
 .bss           0x00000000        0x0 /home/opt/microchip/xc32/v1.00/bin/../lib/gcc/pic32mx/4.5.1/../../../../pic32mx/lib/libmchp_peripheral_32MX440F128H.a(int_tbl_lib.o)

.data%z42       0x00000000        0x0
 .data          0x00000000        0x0 /home/opt/microchip/xc32/v1.00/bin/../lib/gcc/pic32mx/4.5.1/../../../../pic32mx/lib/libmchp_peripheral_32MX440F128H.a(int_tbl_lib.o)

.mdebug.abi32%z43
                0x00000000        0x0
 .mdebug.abi32  0x00000000        0x0 /home/opt/microchip/xc32/v1.00/bin/../lib/gcc/pic32mx/4.5.1/../../../../pic32mx/lib/libmchp_peripheral_32MX440F128H.a(int_enable_mv_int_lib.o)

.bss%z44        0x00000000        0x0
 .bss           0x00000000        0x0 /home/opt/microchip/xc32/v1.00/bin/../lib/gcc/pic32mx/4.5.1/../../../../pic32mx/lib/libmchp_peripheral_32MX440F128H.a(int_enable_mv_int_lib.o)

.data%z45       0x00000000        0x0
 .data          0x00000000        0x0 /home/opt/microchip/xc32/v1.00/bin/../lib/gcc/pic32mx/4.5.1/../../../../pic32mx/lib/libmchp_peripheral_32MX440F128H.a(int_enable_mv_int_lib.o)

.mdebug.abi32%z46
                0x00000000        0x0
 .mdebug.abi32  0x00000000        0x0 /home/opt/microchip/xc32/v1.00/bin/../lib/gcc/pic32mx/4.5.1/../../../../pic32mx/lib/libmchp_peripheral_32MX440F128H.a(int_restore_interrupts_lib.o)

.bss%z47        0x00000000        0x0
 .bss           0x00000000        0x0 /home/opt/microchip/xc32/v1.00/bin/../lib/gcc/pic32mx/4.5.1/../../../../pic32mx/lib/libmchp_peripheral_32MX440F128H.a(int_restore_interrupts_lib.o)

.data%z48       0x00000000        0x0
 .data          0x00000000        0x0 /home/opt/microchip/xc32/v1.00/bin/../lib/gcc/pic32mx/4.5.1/../../../../pic32mx/lib/libmchp_peripheral_32MX440F128H.a(int_restore_interrupts_lib.o)

.mdebug.abi32%z49
                0x00000000        0x0
 .mdebug.abi32  0x00000000        0x0 /home/opt/microchip/xc32/v1.00/bin/../lib/gcc/pic32mx/4.5.1/../../../../pic32mx/lib/libmchp_peripheral_32MX440F128H.a(int_disable_interrupts_lib.o)

.bss%z50        0x00000000        0x0
 .bss           0x00000000        0x0 /home/opt/microchip/xc32/v1.00/bin/../lib/gcc/pic32mx/4.5.1/../../../../pic32mx/lib/libmchp_peripheral_32MX440F128H.a(int_disable_interrupts_lib.o)

.data%z51       0x00000000        0x0
 .data          0x00000000        0x0 /home/opt/microchip/xc32/v1.00/bin/../lib/gcc/pic32mx/4.5.1/../../../../pic32mx/lib/libmchp_peripheral_32MX440F128H.a(int_disable_interrupts_lib.o)

.mdebug.abi32%z52
                0x00000000        0x0
 .mdebug.abi32  0x00000000        0x0 /home/opt/microchip/xc32/v1.00/bin/../lib/gcc/pic32mx/4.5.1/../../../../pic32mx/lib/libmchp_peripheral_32MX440F128H.a(int_enable_interrupts_lib.o)

.bss%z53        0x00000000        0x0
 .bss           0x00000000        0x0 /home/opt/microchip/xc32/v1.00/bin/../lib/gcc/pic32mx/4.5.1/../../../../pic32mx/lib/libmchp_peripheral_32MX440F128H.a(int_enable_interrupts_lib.o)

.data%z54       0x00000000        0x0
 .data          0x00000000        0x0 /home/opt/microchip/xc32/v1.00/bin/../lib/gcc/pic32mx/4.5.1/../../../../pic32mx/lib/libmchp_peripheral_32MX440F128H.a(int_enable_interrupts_lib.o)

.mdebug.abi32%z55
                0x00000000        0x0
 .mdebug.abi32  0x00000000        0x0 /home/opt/microchip/xc32/v1.00/bin/../lib/gcc/pic32mx/4.5.1/../../../../pic32mx/lib/libmchp_peripheral_32MX440F128H.a(pcache.o)

.bss%z56        0x00000000        0x0
 .bss           0x00000000        0x0 /home/opt/microchip/xc32/v1.00/bin/../lib/gcc/pic32mx/4.5.1/../../../../pic32mx/lib/libmchp_peripheral_32MX440F128H.a(pcache.o)

.data%z57       0x00000000        0x0
 .data          0x00000000        0x0 /home/opt/microchip/xc32/v1.00/bin/../lib/gcc/pic32mx/4.5.1/../../../../pic32mx/lib/libmchp_peripheral_32MX440F128H.a(pcache.o)

.bss%z58        0x00000000        0x0
 .bss           0x00000000        0x0 /home/opt/microchip/xc32/v1.00/bin/../lib/gcc/pic32mx/4.5.1/../../../../pic32mx/lib/./proc/32MX440F128H/processor.o

.data%z59       0x00000000        0x0
 .data          0x00000000        0x0 /home/opt/microchip/xc32/v1.00/bin/../lib/gcc/pic32mx/4.5.1/../../../../pic32mx/lib/./proc/32MX440F128H/processor.o

.mdebug.abi32%z60
                0x00000000        0x0
 .mdebug.abi32  0x00000000        0x0 /home/opt/microchip/xc32/v1.00/bin/../lib/gcc/pic32mx/4.5.1/../../../../pic32mx/lib/libc.a(errno.o)

.bss%z61        0x00000000        0x0
 .bss           0x00000000        0x0 /home/opt/microchip/xc32/v1.00/bin/../lib/gcc/pic32mx/4.5.1/../../../../pic32mx/lib/libc.a(errno.o)

.data%z62       0x00000000        0x0
 .data          0x00000000        0x0 /home/opt/microchip/xc32/v1.00/bin/../lib/gcc/pic32mx/4.5.1/../../../../pic32mx/lib/libc.a(errno.o)

.mdebug.abi32%z63
                0x00000000        0x0
 .mdebug.abi32  0x00000000        0x0 /home/opt/microchip/xc32/v1.00/bin/../lib/gcc/pic32mx/4.5.1/../../../../pic32mx/lib/libm.a(s_lib_ver.o)

.bss%z64        0x00000000        0x0
 .bss           0x00000000        0x0 /home/opt/microchip/xc32/v1.00/bin/../lib/gcc/pic32mx/4.5.1/../../../../pic32mx/lib/libm.a(s_lib_ver.o)

.data%z65       0x00000000        0x0
 .data          0x00000000        0x0 /home/opt/microchip/xc32/v1.00/bin/../lib/gcc/pic32mx/4.5.1/../../../../pic32mx/lib/libm.a(s_lib_ver.o)

.bss%z66        0x00000000        0x0
 .bss           0x00000000        0x0 /home/opt/microchip/xc32/v1.00/bin/../lib/gcc/pic32mx/4.5.1/../../../../pic32mx/lib/libm.a(sincof32.o)

.bss%z67        0x00000000        0x0
 .bss           0x00000000        0x0 /home/opt/microchip/xc32/v1.00/bin/../lib/gcc/pic32mx/4.5.1/../../../../pic32mx/lib/libm.a(fpreduct32.o)

.data%z68       0x00000000        0x0
 .data          0x00000000        0x0 /home/opt/microchip/xc32/v1.00/bin/../lib/gcc/pic32mx/4.5.1/../../../../pic32mx/lib/libm.a(fpreduct32.o)

.bss%z69        0x00000000        0x0
 .bss           0x00000000        0x0 /home/opt/microchip/xc32/v1.00/bin/../lib/gcc/pic32mx/4.5.1/../../../../pic32mx/lib/libm.a(fpsin32.o)

.data%z70       0x00000000        0x0
 .data          0x00000000        0x0 /home/opt/microchip/xc32/v1.00/bin/../lib/gcc/pic32mx/4.5.1/../../../../pic32mx/lib/libm.a(fpsin32.o)

.bss%z71        0x00000000        0x0
 .bss           0x00000000        0x0 /home/opt/microchip/xc32/v1.00/bin/../lib/gcc/pic32mx/4.5.1/../../../../pic32mx/lib/libm.a(fpcos32.o)

.data%z72       0x00000000        0x0
 .data          0x00000000        0x0 /home/opt/microchip/xc32/v1.00/bin/../lib/gcc/pic32mx/4.5.1/../../../../pic32mx/lib/libm.a(fpcos32.o)

.bss%z73        0x00000000        0x0
 .bss           0x00000000        0x0 /home/opt/microchip/xc32/v1.00/bin/../lib/gcc/pic32mx/4.5.1/../../../../pic32mx/lib/libm.a(fp32.o)

.data%z74       0x00000000        0x0
 .data          0x00000000        0x0 /home/opt/microchip/xc32/v1.00/bin/../lib/gcc/pic32mx/4.5.1/../../../../pic32mx/lib/libm.a(fp32.o)

.mdebug.abi32%z75
                0x00000000        0x0
 .mdebug.abi32  0x00000000        0x0 /home/opt/microchip/xc32/v1.00/bin/../lib/gcc/pic32mx/4.5.1/../../../../pic32mx/lib/libm.a(w_sqrtf.o)

.bss%z76        0x00000000        0x0
 .bss           0x00000000        0x0 /home/opt/microchip/xc32/v1.00/bin/../lib/gcc/pic32mx/4.5.1/../../../../pic32mx/lib/libm.a(w_sqrtf.o)

.data%z77       0x00000000        0x0
 .data          0x00000000        0x0 /home/opt/microchip/xc32/v1.00/bin/../lib/gcc/pic32mx/4.5.1/../../../../pic32mx/lib/libm.a(w_sqrtf.o)

.bss%z78        0x00000000        0x0
 .bss           0x00000000        0x0 /home/opt/microchip/xc32/v1.00/bin/../lib/gcc/pic32mx/4.5.1/../../../../pic32mx/lib/libm.a(fpsqrt32.o)

.data%z79       0x00000000        0x0
 .data          0x00000000        0x0 /home/opt/microchip/xc32/v1.00/bin/../lib/gcc/pic32mx/4.5.1/../../../../pic32mx/lib/libm.a(fpsqrt32.o)

.bss%z80        0x00000000        0x0
 .bss           0x00000000        0x0 /home/opt/microchip/xc32/v1.00/bin/../lib/gcc/pic32mx/4.5.1/../../../../pic32mx/lib/libm.a(fparc32.o)

.bss%z81        0x00000000        0x0
 .bss           0x00000000        0x0 /home/opt/microchip/xc32/v1.00/bin/../lib/gcc/pic32mx/4.5.1/../../../../pic32mx/lib/libc.a(default-nmi-handler.o)

.data%z82       0x00000000        0x0
 .data          0x00000000        0x0 /home/opt/microchip/xc32/v1.00/bin/../lib/gcc/pic32mx/4.5.1/../../../../pic32mx/lib/libc.a(default-nmi-handler.o)

.mdebug.abi32%z83
                0x00000000        0x0
 .mdebug.abi32  0x00000000        0x0 /home/opt/microchip/xc32/v1.00/bin/../lib/gcc/pic32mx/4.5.1/../../../../pic32mx/lib/libc.a(default-on-bootstrap.o)

.bss%z84        0x00000000        0x0
 .bss           0x00000000        0x0 /home/opt/microchip/xc32/v1.00/bin/../lib/gcc/pic32mx/4.5.1/../../../../pic32mx/lib/libc.a(default-on-bootstrap.o)

.data%z85       0x00000000        0x0
 .data          0x00000000        0x0 /home/opt/microchip/xc32/v1.00/bin/../lib/gcc/pic32mx/4.5.1/../../../../pic32mx/lib/libc.a(default-on-bootstrap.o)

.mdebug.abi32%z86
                0x00000000        0x0
 .mdebug.abi32  0x00000000        0x0 /home/opt/microchip/xc32/v1.00/bin/../lib/gcc/pic32mx/4.5.1/../../../../pic32mx/lib/libc.a(default-on-reset.o)

.bss%z87        0x00000000        0x0
 .bss           0x00000000        0x0 /home/opt/microchip/xc32/v1.00/bin/../lib/gcc/pic32mx/4.5.1/../../../../pic32mx/lib/libc.a(default-on-reset.o)

.data%z88       0x00000000        0x0
 .data          0x00000000        0x0 /home/opt/microchip/xc32/v1.00/bin/../lib/gcc/pic32mx/4.5.1/../../../../pic32mx/lib/libc.a(default-on-reset.o)

.mdebug.abi32%z89
                0x00000000        0x0
 .mdebug.abi32  0x00000000        0x0 /home/opt/microchip/xc32/v1.00/bin/../lib/gcc/pic32mx/4.5.1/../../../../pic32mx/lib/libc.a(default-bootstrap-exception-handler.o)

.bss%z90        0x00000000        0x0
 .bss           0x00000000        0x0 /home/opt/microchip/xc32/v1.00/bin/../lib/gcc/pic32mx/4.5.1/../../../../pic32mx/lib/libc.a(default-bootstrap-exception-handler.o)

.data%z91       0x00000000        0x0
 .data          0x00000000        0x0 /home/opt/microchip/xc32/v1.00/bin/../lib/gcc/pic32mx/4.5.1/../../../../pic32mx/lib/libc.a(default-bootstrap-exception-handler.o)

.bss%z92        0x00000000        0x0
 .bss           0x00000000        0x0 /home/opt/microchip/xc32/v1.00/bin/../lib/gcc/pic32mx/4.5.1/../../../../pic32mx/lib/libc.a(general-exception.o)

.data%z93       0x00000000        0x0
 .data          0x00000000        0x0 /home/opt/microchip/xc32/v1.00/bin/../lib/gcc/pic32mx/4.5.1/../../../../pic32mx/lib/libc.a(general-exception.o)

.bss%z94        0x00000000        0x0
 .bss           0x00000000        0x0 /home/opt/microchip/xc32/v1.00/bin/../lib/gcc/pic32mx/4.5.1/../../../../pic32mx/lib/libc.a(memset.o)

.data%z95       0x00000000        0x0
 .data          0x00000000        0x0 /home/opt/microchip/xc32/v1.00/bin/../lib/gcc/pic32mx/4.5.1/../../../../pic32mx/lib/libc.a(memset.o)

.mdebug.abi32%z96
                0x00000000        0x0
 .mdebug.abi32  0x00000000        0x0 /home/opt/microchip/xc32/v1.00/bin/../lib/gcc/pic32mx/4.5.1/libgcc.a(floatunsisf.o)

.bss%z97        0x00000000        0x0
 .bss           0x00000000        0x0 /home/opt/microchip/xc32/v1.00/bin/../lib/gcc/pic32mx/4.5.1/libgcc.a(floatunsisf.o)

.data%z98       0x00000000        0x0
 .data          0x00000000        0x0 /home/opt/microchip/xc32/v1.00/bin/../lib/gcc/pic32mx/4.5.1/libgcc.a(floatunsisf.o)

.mdebug.abi32%z99
                0x00000000        0x0
 .mdebug.abi32  0x00000000        0x0 build/default/debug/_ext/711791526/servoCalibration.o

.data%z100      0x00000000        0x0
 .data          0x00000000        0x0 build/default/debug/_ext/711791526/servoCalibration.o

.mdebug.abi32%z101
                0x00000000        0x0
 .mdebug.abi32  0x00000000        0x0 build/default/debug/_ext/664674842/Namespace_bcs_cartesian.o

.bss%z102       0x00000000        0x0
 .bss           0x00000000        0x0 build/default/debug/_ext/664674842/Namespace_bcs_cartesian.o

.mdebug.abi32%z103
                0x00000000        0x0
 .mdebug.abi32  0x00000000        0x0 build/default/debug/_ext/711791526/MotionTest.o

.bss%z104       0x00000000        0x0
 .bss           0x00000000        0x0 build/default/debug/_ext/711791526/MotionTest.o

.data%z105      0x00000000        0x0
 .data          0x00000000        0x0 build/default/debug/_ext/711791526/MotionTest.o

.mdebug.abi32%z106
                0x00000000        0x0
 .mdebug.abi32  0x00000000        0x0 build/default/debug/_ext/711791526/Calibration.o

.bss%z107       0x00000000        0x0
 .bss           0x00000000        0x0 build/default/debug/_ext/711791526/Calibration.o

.data%z108      0x00000000        0x0
 .data          0x00000000        0x0 build/default/debug/_ext/711791526/Calibration.o

.mdebug.abi32%z109
                0x00000000        0x0
 .mdebug.abi32  0x00000000        0x0 build/default/debug/_ext/711791526/delta.o

.bss%z110       0x00000000        0x0
 .bss           0x00000000        0x0 build/default/debug/_ext/711791526/delta.o

.data%z111      0x00000000        0x0
 .data          0x00000000        0x0 build/default/debug/_ext/711791526/delta.o

.mdebug.abi32%z112
                0x00000000        0x0
 .mdebug.abi32  0x00000000        0x0 build/default/debug/_ext/711791526/DeltaKinematics.o

.bss%z113       0x00000000        0x0
 .bss           0x00000000        0x0 build/default/debug/_ext/711791526/DeltaKinematics.o

.data%z114      0x00000000        0x0
 .data          0x00000000        0x0 build/default/debug/_ext/711791526/DeltaKinematics.o

.mdebug.abi32%z115
                0x00000000        0x0
 .mdebug.abi32  0x00000000        0x0 build/default/debug/_ext/711791526/CartesianController.o

.bss%z116       0x00000000        0x0
 .bss           0x00000000        0x0 build/default/debug/_ext/711791526/CartesianController.o

.data%z117      0x00000000        0x0
 .data          0x00000000        0x0 build/default/debug/_ext/711791526/CartesianController.o

.mdebug.abi32%z118
                0x00000000        0x0
 .mdebug.abi32  0x00000000        0x0 build/default/debug/_ext/711791526/ForgeHeater.o

.data%z119      0x00000000        0x0
 .data          0x00000000        0x0 build/default/debug/_ext/711791526/ForgeHeater.o

.mdebug.abi32%z120
                0x00000000        0x0
 .mdebug.abi32  0x00000000        0x0 build/default/debug/_ext/711791526/StepperSim.o

.bss%z121       0x00000000        0x0
 .bss           0x00000000        0x0 build/default/debug/_ext/711791526/StepperSim.o

.data%z122      0x00000000        0x0
 .data          0x00000000        0x0 build/default/debug/_ext/711791526/StepperSim.o

.mdebug.abi32%z123
                0x00000000        0x0
 .mdebug.abi32  0x00000000        0x0 build/default/debug/_ext/711791526/Servo.o

.bss%z124       0x00000000        0x0
 .bss           0x00000000        0x0 build/default/debug/_ext/711791526/Servo.o

.data%z125      0x00000000        0x0
 .data          0x00000000        0x0 build/default/debug/_ext/711791526/Servo.o

.mdebug.abi32%z126
                0x00000000        0x0
 .mdebug.abi32  0x00000000        0x0 build/default/debug/_ext/711791526/PID.o

.data%z127      0x00000000        0x0
 .data          0x00000000        0x0 build/default/debug/_ext/711791526/PID.o

.mdebug.abi32%z128
                0x00000000        0x0
 .mdebug.abi32  0x00000000        0x0 build/default/debug/_ext/711791526/AS5055.o

.bss%z129       0x00000000        0x0
 .bss           0x00000000        0x0 build/default/debug/_ext/711791526/AS5055.o

.data%z130      0x00000000        0x0
 .data          0x00000000        0x0 build/default/debug/_ext/711791526/AS5055.o

.mdebug.abi32%z131
                0x00000000        0x0
 .mdebug.abi32  0x00000000        0x0 build/default/debug/_ext/711791526/UpstreamPackets.o

.data%z132      0x00000000        0x0
 .data          0x00000000        0x0 build/default/debug/_ext/711791526/UpstreamPackets.o

.mdebug.abi32%z133
                0x00000000        0x0
 .mdebug.abi32  0x00000000        0x0 build/default/debug/_ext/711791526/Callbacks.o

.bss%z134       0x00000000        0x0
 .bss           0x00000000        0x0 build/default/debug/_ext/711791526/Callbacks.o

.data%z135      0x00000000        0x0
 .data          0x00000000        0x0 build/default/debug/_ext/711791526/Callbacks.o

.mdebug.abi32%z136
                0x00000000        0x0
 .mdebug.abi32  0x00000000        0x0 build/default/debug/_ext/711791526/main.o

.data%z137      0x00000000        0x0
 .data          0x00000000        0x0 build/default/debug/_ext/711791526/main.o

.mdebug.abi32%z138
                0x00000000        0x0
 .mdebug.abi32  0x00000000        0x0 build/default/debug/_ext/711791526/SPIClient.o

.bss%z139       0x00000000        0x0
 .bss           0x00000000        0x0 build/default/debug/_ext/711791526/SPIClient.o

.data%z140      0x00000000        0x0
 .data          0x00000000        0x0 build/default/debug/_ext/711791526/SPIClient.o

.mdebug.abi32%z141
                0x00000000        0x0
 .mdebug.abi32  0x00000000        0x0 build/default/debug/_ext/1080174469/Namespace_bcs_rpc.o

.bss%z142       0x00000000        0x0
 .bss           0x00000000        0x0 build/default/debug/_ext/1080174469/Namespace_bcs_rpc.o

.mdebug.abi32%z143
                0x00000000        0x0
 .mdebug.abi32  0x00000000        0x0 build/default/debug/_ext/1080174469/Namespace_bcs_pid.o

.bss%z144       0x00000000        0x0
 .bss           0x00000000        0x0 build/default/debug/_ext/1080174469/Namespace_bcs_pid.o

.mdebug.abi32%z145
                0x00000000        0x0
 .mdebug.abi32  0x00000000        0x0 build/default/debug/_ext/1080174469/Namespace_bcs_core.o

.bss%z146       0x00000000        0x0
 .bss           0x00000000        0x0 build/default/debug/_ext/1080174469/Namespace_bcs_core.o

.mdebug.abi32%z147
                0x00000000        0x0
 .mdebug.abi32  0x00000000        0x0 build/default/debug/_ext/1080174469/Bowler_Server.o

.bss%z148       0x00000000        0x0
 .bss           0x00000000        0x0 build/default/debug/_ext/1080174469/Bowler_Server.o

.data%z149      0x00000000        0x0
 .data          0x00000000        0x0 build/default/debug/_ext/1080174469/Bowler_Server.o

.mdebug.abi32%z150
                0x00000000        0x0
 .mdebug.abi32  0x00000000        0x0 build/default/debug/_ext/1080174469/Scheduler.o

.bss%z151       0x00000000        0x0
 .bss           0x00000000        0x0 build/default/debug/_ext/1080174469/Scheduler.o

.data%z152      0x00000000        0x0
 .data          0x00000000        0x0 build/default/debug/_ext/1080174469/Scheduler.o

.mdebug.abi32%z153
                0x00000000        0x0
 .mdebug.abi32  0x00000000        0x0 build/default/debug/_ext/1080174469/Debug.o

.bss%z154       0x00000000        0x0
 .bss           0x00000000        0x0 build/default/debug/_ext/1080174469/Debug.o

.data%z155      0x00000000        0x0
 .data          0x00000000        0x0 build/default/debug/_ext/1080174469/Debug.o

.mdebug.abi32%z156
                0x00000000        0x0
 .mdebug.abi32  0x00000000        0x0 build/default/debug/_ext/1080174469/Bowler_Transport.o

.bss%z157       0x00000000        0x0
 .bss           0x00000000        0x0 build/default/debug/_ext/1080174469/Bowler_Transport.o

.data%z158      0x00000000        0x0
 .data          0x00000000        0x0 build/default/debug/_ext/1080174469/Bowler_Transport.o

.mdebug.abi32%z159
                0x00000000        0x0
 .mdebug.abi32  0x00000000        0x0 build/default/debug/_ext/1080174469/Bowler_RPC_Process.o

.bss%z160       0x00000000        0x0
 .bss           0x00000000        0x0 build/default/debug/_ext/1080174469/Bowler_RPC_Process.o

.data%z161      0x00000000        0x0
 .data          0x00000000        0x0 build/default/debug/_ext/1080174469/Bowler_RPC_Process.o

.mdebug.abi32%z162
                0x00000000        0x0
 .mdebug.abi32  0x00000000        0x0 build/default/debug/_ext/1080174469/FIFO.o

.bss%z163       0x00000000        0x0
 .bss           0x00000000        0x0 build/default/debug/_ext/1080174469/FIFO.o

.data%z164      0x00000000        0x0
 .data          0x00000000        0x0 build/default/debug/_ext/1080174469/FIFO.o

.mdebug.abi32%z165
                0x00000000        0x0
 .mdebug.abi32  0x00000000        0x0 build/default/debug/_ext/1080174469/Bowler_Stack_Callback.o

.bss%z166       0x00000000        0x0
 .bss           0x00000000        0x0 build/default/debug/_ext/1080174469/Bowler_Stack_Callback.o

.data%z167      0x00000000        0x0
 .data          0x00000000        0x0 build/default/debug/_ext/1080174469/Bowler_Stack_Callback.o

.mdebug.abi32%z168
                0x00000000        0x0
 .mdebug.abi32  0x00000000        0x0 build/default/debug/_ext/1080174469/AbstractPID.o

.bss%z169       0x00000000        0x0
 .bss           0x00000000        0x0 build/default/debug/_ext/1080174469/AbstractPID.o

.data%z170      0x00000000        0x0
 .data          0x00000000        0x0 build/default/debug/_ext/1080174469/AbstractPID.o

.mdebug.abi32%z171
                0x00000000        0x0
 .mdebug.abi32  0x00000000        0x0 build/default/debug/_ext/1080174469/Bowler_Helper.o

.bss%z172       0x00000000        0x0
 .bss           0x00000000        0x0 build/default/debug/_ext/1080174469/Bowler_Helper.o

.data%z173      0x00000000        0x0
 .data          0x00000000        0x0 build/default/debug/_ext/1080174469/Bowler_Helper.o

.mdebug.abi32%z174
                0x00000000        0x0
 .mdebug.abi32  0x00000000        0x0 build/default/debug/_ext/2118813141/Bowler_USB_HAL.o

.bss%z175       0x00000000        0x0
 .bss           0x00000000        0x0 build/default/debug/_ext/2118813141/Bowler_USB_HAL.o

.data%z176      0x00000000        0x0
 .data          0x00000000        0x0 build/default/debug/_ext/2118813141/Bowler_USB_HAL.o

.mdebug.abi32%z177
                0x00000000        0x0
 .mdebug.abi32  0x00000000        0x0 build/default/debug/_ext/2118813141/ADC.o

.bss%z178       0x00000000        0x0
 .bss           0x00000000        0x0 build/default/debug/_ext/2118813141/ADC.o

.data%z179      0x00000000        0x0
 .data          0x00000000        0x0 build/default/debug/_ext/2118813141/ADC.o

.mdebug.abi32%z180
                0x00000000        0x0
 .mdebug.abi32  0x00000000        0x0 build/default/debug/_ext/2118813141/UART.o

.bss%z181       0x00000000        0x0
 .bss           0x00000000        0x0 build/default/debug/_ext/2118813141/UART.o

.data%z182      0x00000000        0x0
 .data          0x00000000        0x0 build/default/debug/_ext/2118813141/UART.o

.mdebug.abi32%z183
                0x00000000        0x0
 .mdebug.abi32  0x00000000        0x0 build/default/debug/_ext/2118813141/Bowler_UART_HAL.o

.data%z184      0x00000000        0x0
 .data          0x00000000        0x0 build/default/debug/_ext/2118813141/Bowler_UART_HAL.o

.mdebug.abi32%z185
                0x00000000        0x0
 .mdebug.abi32  0x00000000        0x0 build/default/debug/_ext/2118813141/Tick.o

.bss%z186       0x00000000        0x0
 .bss           0x00000000        0x0 build/default/debug/_ext/2118813141/Tick.o

.data%z187      0x00000000        0x0
 .data          0x00000000        0x0 build/default/debug/_ext/2118813141/Tick.o

.mdebug.abi32%z188
                0x00000000        0x0
 .mdebug.abi32  0x00000000        0x0 build/default/debug/_ext/2118813141/LED.o

.bss%z189       0x00000000        0x0
 .bss           0x00000000        0x0 build/default/debug/_ext/2118813141/LED.o

.data%z190      0x00000000        0x0
 .data          0x00000000        0x0 build/default/debug/_ext/2118813141/LED.o

.mdebug.abi32%z191
                0x00000000        0x0
 .mdebug.abi32  0x00000000        0x0 build/default/debug/_ext/2118813141/HAL_P32.o

.data%z192      0x00000000        0x0
 .data          0x00000000        0x0 build/default/debug/_ext/2118813141/HAL_P32.o

.mdebug.abi32%z193
                0x00000000        0x0
 .mdebug.abi32  0x00000000        0x0 build/default/debug/_ext/2118813141/FlashStorage.o

.bss%z194       0x00000000        0x0
 .bss           0x00000000        0x0 build/default/debug/_ext/2118813141/FlashStorage.o

.data%z195      0x00000000        0x0
 .data          0x00000000        0x0 build/default/debug/_ext/2118813141/FlashStorage.o

.mdebug.abi32%z196
                0x00000000        0x0
 .mdebug.abi32  0x00000000        0x0 build/default/debug/_ext/2118813141/Delay.o

.bss%z197       0x00000000        0x0
 .bss           0x00000000        0x0 build/default/debug/_ext/2118813141/Delay.o

.data%z198      0x00000000        0x0
 .data          0x00000000        0x0 build/default/debug/_ext/2118813141/Delay.o

.mdebug.abi32%z199
                0x00000000        0x0
 .mdebug.abi32  0x00000000        0x0 build/default/debug/_ext/1487882678/usb_device.o

.bss%z200       0x00000000        0x0
 .bss           0x00000000        0x0 build/default/debug/_ext/1487882678/usb_device.o

.data%z201      0x00000000        0x0
 .data          0x00000000        0x0 build/default/debug/_ext/1487882678/usb_device.o

.mdebug.abi32%z202
                0x00000000        0x0
 .mdebug.abi32  0x00000000        0x0 build/default/debug/_ext/1487882678/usb_interrupt.o

.bss%z203       0x00000000        0x0
 .bss           0x00000000        0x0 build/default/debug/_ext/1487882678/usb_interrupt.o

.data%z204      0x00000000        0x0
 .data          0x00000000        0x0 build/default/debug/_ext/1487882678/usb_interrupt.o

.mdebug.abi32%z205
                0x00000000        0x0
 .mdebug.abi32  0x00000000        0x0 build/default/debug/_ext/1487882678/usb_callback.o

.bss%z206       0x00000000        0x0
 .bss           0x00000000        0x0 build/default/debug/_ext/1487882678/usb_callback.o

.data%z207      0x00000000        0x0
 .data          0x00000000        0x0 build/default/debug/_ext/1487882678/usb_callback.o

.mdebug.abi32%z208
                0x00000000        0x0
 .mdebug.abi32  0x00000000        0x0 build/default/debug/_ext/1487882678/usb_fifo.o

.data%z209      0x00000000        0x0
 .data          0x00000000        0x0 build/default/debug/_ext/1487882678/usb_fifo.o

.mdebug.abi32%z210
                0x00000000        0x0
 .mdebug.abi32  0x00000000        0x0 build/default/debug/_ext/1487882678/usb_function_cdc.o

.bss%z211       0x00000000        0x0
 .bss           0x00000000        0x0 build/default/debug/_ext/1487882678/usb_function_cdc.o

.data%z212      0x00000000        0x0
 .data          0x00000000        0x0 build/default/debug/_ext/1487882678/usb_function_cdc.o

.mdebug.abi32%z213
                0x00000000        0x0
 .mdebug.abi32  0x00000000        0x0 build/default/debug/_ext/1487882678/usb_descriptors.o

.bss%z214       0x00000000        0x0
 .bss           0x00000000        0x0 build/default/debug/_ext/1487882678/usb_descriptors.o

.bss%z215       0x00000000        0x0
 .bss           0x00000000        0x0 /home/opt/microchip/xc32/v1.00/bin/../lib/gcc/pic32mx/4.5.1/../../../../pic32mx/lib/crt0.o

.data%z216      0x00000000        0x0
 .data          0x00000000        0x0 /home/opt/microchip/xc32/v1.00/bin/../lib/gcc/pic32mx/4.5.1/../../../../pic32mx/lib/crt0.o

.text           0x9d000008    0x1244c
 .text          0x9d000008     0x3140 build/default/debug/_ext/1080174469/AbstractPID.o
                0x9d000008                getPidGroupDataTable
                0x9d00002c                isPidEnabled
                0x9d000070                SetPIDEnabled
                0x9d0000c0                SetControllerMath
                0x9d00010c                InitilizePidController
                0x9d0001f0                updatePidAsync
                0x9d0002e8                pushAllPIDPositions
                0x9d000460                prep
                0x9d000528                pushPIDLimitEvent
                0x9d000904                pushPID
                0x9d000b58                RunPDVel
                0x9d000f38                StartPDVel
                0x9d0010f0                GetConfigPDVelocity
                0x9d001210                ConfigPDVelovity
                0x9d001350                GetConfigPID
                0x9d001600                ConfigPID
                0x9d001954                ZeroPID
                0x9d00199c                ClearPID
                0x9d001a04                SetPIDTimed
                0x9d001c9c                SetPID
                0x9d001cec                GetPIDPosition
                0x9d001d64                processPIDGet
                0x9d00200c                processPIDPost
                0x9d002434                processPIDCrit
                0x9d002650                ProcessPIDPacket
                0x9d0026e8                pidResetNoStop
                0x9d002850                pidReset
                0x9d0029c0                InitAbsPID
                0x9d002a20                setPIDConstants
                0x9d002ab0                InitAbsPIDWithPosition
                0x9d002b60                RunVel
                0x9d002be8                isPIDInterpolating
                0x9d002c5c                isPIDArrivedAtSetpoint
                0x9d002cdc                RunPIDControl
                0x9d002e44                RunPIDComs
                0x9d002edc                RunPID
                0x9d002f24                RunAbstractPIDCalc
 .text          0x9d003148     0x2f24 build/default/debug/_ext/1487882678/usb_device.o
                0x9d003148                USBDeviceInit
                0x9d003394                _USB1Interrupt
                0x9d0034a4                USBDeviceTasksLocal
                0x9d003858                USBStallHandler
                0x9d00392c                USBSuspend
                0x9d003988                USBWakeFromSuspend
                0x9d0039e0                USBCtrlEPService
                0x9d003bd4                USBCtrlTrfSetupHandler
                0x9d003c7c                USBCtrlTrfOutHandler
                0x9d003d98                USBCtrlTrfInHandler
                0x9d003f90                USBPrepareForNextSetupTrf
                0x9d004098                USBCheckStdRequest
                0x9d004288                USBStdFeatureReqHandler
                0x9d004538                USBStdGetDscHandler
                0x9d00466c                USBStdGetStatusHandler
                0x9d004850                USBCtrlEPServiceComplete
                0x9d004e5c                USBCtrlTrfTxService
                0x9d005018                USBCtrlTrfRxService
                0x9d00537c                USBStdSetCfgHandler
                0x9d0054ec                USBConfigureEndpoint
                0x9d0055d4                USBEnableEndpoint
                0x9d005678                USBStallEndpoint
                0x9d005888                USBTransferOnePacket
                0x9d005b08                USBCancelIO
                0x9d005f3c                USBDeviceDetach
                0x9d005f70                USBDeviceAttach
 .text          0x9d00606c     0x2444 build/default/debug/_ext/711791526/main.o
                0x9d00606c                _general_exception_handler
                0x9d007bc0                Bowler_Server_Local
                0x9d007d7c                hardwareInit
                0x9d00834c                bowlerSystem
                0x9d008440                main
                0x9d008490                HomeLinks
 .text          0x9d0084b0     0x15a0 build/default/debug/_ext/711791526/CartesianController.o
                0x9d0084b0                isCartesianInterpolationDone
                0x9d008550                initializeCartesianController
                0x9d0085f0                pushBufferEmpty
                0x9d0086dc                loadCurrentPosition
                0x9d0087cc                checkPositionChange
                0x9d008a78                cartesianAsync
                0x9d008b04                processLinearInterpPacket
                0x9d008d3c                onCartesianPost
                0x9d008f38                cancelPrint
                0x9d008fd0                onCartesianGet
                0x9d008ff8                onCartesianCrit
                0x9d009020                onCartesianPacket
                0x9d0090f0                interpolateZXY
                0x9d009200                setInterpolateXYZ
                0x9d0094ac                setXYZ
                0x9d009660                linkToHWIndex
                0x9d009710                getLinkScale
                0x9d009780                getCurrentPosition
                0x9d009818                getLinkAngle
                0x9d00989c                setLinkAngle
 .text          0x9d009a50     0x120c build/default/debug/_ext/1080174469/Debug.o
                0x9d009a50                sendToStreamMine
                0x9d009aec                setPrintStream
                0x9d009b30                sendToStreamLocal
                0x9d009b8c                getPrintLevel
                0x9d009bb0                setPrintLevel
                0x9d009bec                okToPrint
                0x9d009c60                GetLowNib
                0x9d009ca0                GetHighNib
                0x9d009ce8                printfDEBUG
                0x9d009d9c                printfDEBUG_BYTE
                0x9d009e00                printfDEBUG_NNL
                0x9d009e9c                printfDEBUG_INT
                0x9d009f94                printfDEBUG_FL
                0x9d00a0d0                printPIDvals
                0x9d00a3e8                printBowlerPacketDEBUG
                0x9d00a9e0                printByteArray
                0x9d00ab34                ultoaMINE
 .text          0x9d00ac5c     0x107c build/default/debug/_ext/711791526/Servo.o
                0x9d00ac5c                runSort
                0x9d00ade4                setServoTimer
                0x9d00aeb4                setTimerLowTime
                0x9d00aeec                setTimerPreTime
                0x9d00af28                setTimerServoTicks
                0x9d00af98                Timer2Handler
                0x9d00b49c                initServos
                0x9d00b680                setServo
                0x9d00b810                getServoPosition
                0x9d00b854                runLinearInterpolationServo
                0x9d00b98c                SetDIO
                0x9d00bb88                pinOn
                0x9d00bbd0                pinOff
                0x9d00bc14                DelayPreServoPulse
                0x9d00bc48                delayLoop
 .text          0x9d00bcd8     0x1050 build/default/debug/_ext/711791526/delta.o
                0x9d00bcd8                initializeDelta
                0x9d00bd70                setConfigurations
                0x9d00bdc8                delta_calcForward
                0x9d00c70c                delta_calcAngleYZ
                0x9d00cb34                delta_calcInverse
 .text          0x9d00cd28      0xff8 build/default/debug/_ext/711791526/AS5055.o
                0x9d00cd28                initializeEncoders
                0x9d00d02c                readEncoderWithoutOffset
                0x9d00d1a0                setCurrentValue
                0x9d00d23c                readEncoder
                0x9d00d344                encoderSPIInit
                0x9d00d39c                AS5055CalculateParity
                0x9d00d444                AS5055reset
                0x9d00d4e4                AS5055ResetErrorFlag
                0x9d00d570                printSystemConfig
                0x9d00d80c                AS5055readAngle
                0x9d00da80                AS5055send
                0x9d00db54                EncoderSS
 .text          0x9d00dd20      0xbd0 build/default/debug/_ext/1080174469/FIFO.o
                0x9d00dd20                printFiFoState
                0x9d00de40                lockFifo
                0x9d00de78                unLockFifo
                0x9d00deb8                InitByteFifo
                0x9d00df68                clearByteFifo
                0x9d00dfd0                ReadFirstByte
                0x9d00e00c                calcByteCount
                0x9d00e0c4                FifoGetByteCount
                0x9d00e0fc                FifoAddByte
                0x9d00e224                getByte
                0x9d00e2f4                FifoGetByteStream
                0x9d00e3e0                FifoReadByteStream
                0x9d00e4e8                InitPacketFifo
                0x9d00e58c                FifoAddPacket
                0x9d00e6f8                FifoGetPacketCount
                0x9d00e7b0                FifoGetPacketSpaceAvailible
                0x9d00e800                FifoGetPacket
 .text          0x9d00e8f0      0xb74 build/default/debug/_ext/1487882678/usb_function_cdc.o
                0x9d00e8f0                USBCheckCDCRequest
                0x9d00ed70                CDCInitEP
                0x9d00ee00                getsUSBUSART
                0x9d00ef2c                USBUSARTRxIsReady
                0x9d00ef88                putUSBUSART
                0x9d00f028                putsUSBUSART
                0x9d00f114                putrsUSBUSART
                0x9d00f1fc                CDCTxService
 .text          0x9d00f464      0xb0c build/default/debug/_ext/711791526/PID.o
                0x9d00f464                initPIDLocal
                0x9d00f930                getRunPidIsr
                0x9d00f954                setPidIsr
                0x9d00f980                asyncCallback
                0x9d00f9c0                onPidConfigureMine
                0x9d00fad0                trigerPIDLimit
                0x9d00fbac                checkPIDLimitEventsMine
                0x9d00fbf0                resetPositionMine
                0x9d00fce8                getPositionMine
                0x9d00fda8                setOutputMine
                0x9d00ff4c                isUpToTempreture
 .text          0x9d00ff70      0xa08 /home/opt/microchip/xc32/v1.00/bin/../lib/gcc/pic32mx/4.5.1/../../../../pic32mx/lib/libm.a(fparc32.o)
                0x9d00ff70                fpexatan
                0x9d0102bc                fpatan
                0x9d0102bc                atanf
                0x9d010358                fpatan2
                0x9d010358                __mchp_atan2f
                0x9d01059c                __mchp_asinf
                0x9d01059c                fpasin
                0x9d010774                fpacos
                0x9d010774                __mchp_acosf
 .text          0x9d010978      0x968 build/default/debug/_ext/1080174469/Bowler_Helper.o
                0x9d010978                LoadCorePacket
                0x9d010a44                CalcCRC
                0x9d010abc                CheckCRC
                0x9d010b1c                SetCRC
                0x9d010b64                GetRPCValue
                0x9d010bd8                READY
                0x9d010c74                ERR
                0x9d010d10                SetPacketLegnth
                0x9d010d50                GetPacketLegnth
                0x9d010d84                DataLegnthFromPacket
                0x9d010db0                copyPacket
                0x9d010e2c                Bytes2Int32
                0x9d010e94                CheckAddress
                0x9d010f1c                interpolate
                0x9d011218                bound
 .text          0x9d0112e0      0x8ec /home/opt/microchip/xc32/v1.00/bin/../lib/gcc/pic32mx/4.5.1/../../../../pic32mx/lib/libm.a(fp32.o)
                0x9d0112e0                __subsf3
                0x9d0112e0                fpsub
                0x9d0112e8                fpadd
                0x9d0112e8                __addsf3
                0x9d011554                __mulsf3
                0x9d011554                fpmul
                0x9d01170c                __divsf3
                0x9d01170c                fpdiv
                0x9d011938                sitofp
                0x9d011938                __floatsisf
                0x9d011938                litofp
                0x9d011994                uitofp
                0x9d011994                ultofp
                0x9d0119e0                __fixsfsi
                0x9d0119e0                fptoli
                0x9d0119e0                fptosi
                0x9d011a58                fptoui
                0x9d011a58                __fixunssfsi
                0x9d011a58                fptoul
                0x9d011acc                __lesf2
                0x9d011acc                __nesf2
                0x9d011acc                __gtsf2
                0x9d011acc                __eqsf2
                0x9d011acc                __ltsf2
                0x9d011acc                fpcmp
                0x9d011acc                __gesf2
                0x9d011b60                fabsf
                0x9d011b60                fpfabs
                0x9d011b70                __negsf2
                0x9d011b80                fpnan
                0x9d011b80                nanf
 .text          0x9d011bcc      0x888 build/default/debug/_ext/1080174469/Namespace_bcs_core.o
                0x9d011bcc                getNumberOfNamespaces
                0x9d011c40                getNumberOfRpcs
                0x9d011cdc                getNamespaceAtIndex
                0x9d011d98                _png
                0x9d011e00                _nms
                0x9d012000                addRpcToNamespace
                0x9d0120fc                addNamespaceToList
                0x9d0121c4                getRpcByID
                0x9d01228c                getRpcByIndex
                0x9d01233c                RunNamespaceAsync
                0x9d0123e0                getBcsCoreNamespace

.dinit          0x9d012454      0x828
 .dinit         0x9d012454      0x828 data_init

.text           0x9d012c7c     0x21e0
 .text          0x9d012c7c      0x7a0 build/default/debug/_ext/1487882678/usb_fifo.o
                0x9d012c7c                GotUSBData
                0x9d012ca4                GetPICUSBFifo
                0x9d012cc8                SetPICUSBFifo
                0x9d012d18                usb_CDC_Serial_Init
                0x9d012de8                USBGetArray
                0x9d012e90                waitForTxToBeFree
                0x9d012fc0                flush
                0x9d013074                isUSBActave
                0x9d01309c                forceOpenUSB
                0x9d0130c4                USBPutArray
                0x9d0132d8                GetNumUSBBytes
                0x9d01331c                usb_Buffer_Update
 .text          0x9d01341c      0x714 build/default/debug/_ext/711791526/servoCalibration.o
                0x9d01341c                incrementHistoresis
                0x9d013488                decrementHistoresis
                0x9d0134f4                calcCenter
                0x9d013670                getUpperServoHistoresis
                0x9d0136ac                getLowerServoHistoresis
                0x9d0136e8                getServoStop
                0x9d013724                runServoCalibration
                0x9d0138b8                servoCalibration
 .text          0x9d013b30      0x674 build/default/debug/_ext/1080174469/Bowler_Transport.o
                0x9d013b30                allign
                0x9d013bfc                _getBowlerPacket
                0x9d013f8c                GetBowlerPacket
                0x9d013fd0                GetBowlerPacketDebug
                0x9d014014                getNumBytes
                0x9d014050                getStream
                0x9d0140a4                FixPacket
                0x9d014130                PutBowlerPacket
 .text          0x9d0141a4      0x668 build/default/debug/_ext/2118813141/FlashStorage.o
                0x9d0141a4                FlashLoad
                0x9d01421c                FlashSync
                0x9d0142bc                FlashSetMac
                0x9d01437c                FlashSetName
                0x9d014404                FlashGetMac
                0x9d0144ec                FlashGetName
                0x9d01456c                FlashGetBlRev
                0x9d0145ec                FlashGetFwRev
                0x9d01466c                FlashSetFwRev
                0x9d01473c                FlashSetBlRev
 .text          0x9d01480c      0x650 build/default/debug/_ext/711791526/ForgeHeater.o
                0x9d01480c                heaterPin
                0x9d0148c0                mapHeaterIndex
                0x9d014938                initializeHeater
                0x9d014b70                resetHeater
                0x9d014b98                getHeaterTempreture
                0x9d014bfc                setHeater
                0x9d014c94                Timer3Handler

.rodata         0x9d014e5c      0xa58
 .rodata        0x9d014e5c      0x530 build/default/debug/_ext/711791526/main.o
                0x9d014e5c                MY_MAC_ADDRESS
 .rodata        0x9d01538c      0x528 /home/opt/microchip/xc32/v1.00/bin/../lib/gcc/pic32mx/4.5.1/../../../../pic32mx/lib/libmchp_peripheral_32MX440F128H.a(int_tbl_lib.o)
                0x9d01538c                __IntSrcTbl
                0x9d01568c                __IntVectorTbl

.text           0x9d0158b4     0x3218
 .text          0x9d0158b4      0x4fc build/default/debug/_ext/2118813141/Bowler_UART_HAL.o
                0x9d0158b4                GotUARTData
                0x9d0158dc                GetPICUARTFifo
                0x9d015900                SetPICUARTFifo
                0x9d01592c                newByteUartHal
                0x9d0159ac                U1_ISR
                0x9d015ac8                CalcBaud
                0x9d015b24                Pic32UARTSetBaud
                0x9d015c34                Pic32UART_HAL_INIT
                0x9d015c94                Pic32UARTGetArray
                0x9d015cf8                Pic32Get_UART_Byte_Count
                0x9d015d34                Pic32UARTPutArray
 .text          0x9d015db0      0x4fc build/default/debug/_ext/1080174469/Namespace_bcs_rpc.o
                0x9d015db0                _rpc
                0x9d015f58                _rpcArgs
                0x9d016238                getBcsRpcNamespace
 .text          0x9d0162ac      0x45c build/default/debug/_ext/2118813141/HAL_P32.o
                0x9d0162ac                Pic32_Bowler_HAL_Init
                0x9d016350                Get_HAL_Packet
                0x9d016400                Send_HAL_Packet
                0x9d016490                Get_HAL_Byte_Count
                0x9d016540                GetBowlerPacket_arch
                0x9d0165e4                putStream
                0x9d016630                getMs
                0x9d016660                putCharDebug
                0x9d0166a0                startScheduler
                0x9d0166d0                EnableDebugTerminal
 .text          0x9d016708      0x450 build/default/debug/_ext/711791526/UpstreamPackets.o
                0x9d016708                push
                0x9d01675c                pushPIDMine
                0x9d016a18                pushEncoders
 .text          0x9d016b58      0x440 build/default/debug/_ext/2118813141/ADC.o
                0x9d016b58                InitADCHardware
                0x9d016e18                getAdcRaw
                0x9d016f28                getAdcVoltage
 .text          0x9d016f98      0x3a0 build/default/debug/_ext/1080174469/Bowler_Server.o
                0x9d016f98                Bowler_Init
                0x9d016fe8                process
                0x9d0171ac                Bowler_Server_Static
                0x9d017218                Bowler_Server
 .text          0x9d017338      0x2cc build/default/debug/_ext/1487882678/usb_callback.o
                0x9d017338                USBCBSuspend
                0x9d017358                USBCBWakeFromSuspend
                0x9d017378                USBCB_SOF_Handler
                0x9d017398                USBCBErrorHandler
                0x9d0173b8                USBCBCheckOtherReq
                0x9d0173e8                USBCBStdSetDscHandler
                0x9d017408                USBCBInitEP
                0x9d017438                USBCBSendResume
                0x9d0174a0                USER_USB_CALLBACK_EVENT_HANDLER
                0x9d0175d4                mySetLineCodingHandler
 .text          0x9d017604      0x2bc build/default/debug/_ext/1080174469/Bowler_RPC_Process.o
                0x9d017604                getLastPacketTime
                0x9d01767c                Process_Self_Packet
 .text          0x9d0178c0      0x2b8 build/default/debug/_ext/2118813141/Tick.o
                0x9d0178c0                TickInit
                0x9d01795c                TickGet
                0x9d01799c                TickGetUpper
                0x9d0179c0                TickGetLower
                0x9d0179e4                MyTickConvertToMilliseconds
                0x9d017a3c                TickGetMS
                0x9d017acc                Timer1Handler
 .text          0x9d017b78      0x2a0 /home/opt/microchip/xc32/v1.00/bin/../lib/gcc/pic32mx/4.5.1/../../../../pic32mx/lib/libm.a(fpsqrt32.o)
                0x9d017b78                fpexsqrt
                0x9d017c70                __mchp_sqrtf
                0x9d017c70                fpsqrt
 .text          0x9d017e18      0x214 build/default/debug/_ext/711791526/StepperSim.o
                0x9d017e18                StartStepperSim
                0x9d017e38                getStepperSimCurrent
                0x9d017e5c                INT1_ISR
 .text          0x9d01802c      0x208 build/default/debug/_ext/2118813141/UART.o
                0x9d01802c                Write32UART2
                0x9d018134                Write32UART1
 .text          0x9d018234      0x204 build/default/debug/_ext/2118813141/LED.o
                0x9d018234                InitLEDS
                0x9d0182a0                SetGreen
                0x9d018304                SetRed
                0x9d018368                SetBlue
                0x9d0183cc                SetColor
 .text          0x9d018438      0x1d4 build/default/debug/_ext/2118813141/Delay.o
                0x9d018438                DelayMs
                0x9d0184cc                DelayPreServo
                0x9d018530                DelayIncServo
                0x9d018550                Delay10us
                0x9d0185a8                Delay1us
 .text          0x9d01860c      0x1a8 build/default/debug/_ext/1080174469/Namespace_bcs_pid.o
                0x9d01860c                pidAsyncEventCallbackLocal
                0x9d018650                getBcsPidNamespace
 .text          0x9d0187b4      0x190 build/default/debug/_ext/1080174469/Scheduler.o
                0x9d0187b4                RunEvery
 .text          0x9d018944      0x188 build/default/debug/_ext/1487882678/usb_descriptors.o
                0x9d018944                WriteUSBSerialNumber
                0x9d0189e0                SetUSB_VID_PID
                0x9d018a30                WriteUSBDeviceString

.rodata         0x9d018acc      0x308
 .rodata        0x9d018acc      0x188 build/default/debug/_ext/1080174469/Debug.o
                0x9d018acc                AsciiHex
 .rodata        0x9d018c54      0x180 build/default/debug/_ext/711791526/CartesianController.o

.text           0x9d018dd4      0x37c
 .text          0x9d018dd4      0x150 build/default/debug/_ext/711791526/Callbacks.o
                0x9d018dd4                UserGetRPCs
                0x9d018e44                UserPostRPCs
                0x9d018eb4                UserCriticalRPCs
 .text          0x9d018f24      0x118 /home/opt/microchip/xc32/v1.00/bin/../lib/gcc/pic32mx/4.5.1/../../../../pic32mx/lib/libm.a(fpsin32.o)
                0x9d018f24                fpsin
                0x9d018f24                sinf
 .text          0x9d01903c      0x114 /home/opt/microchip/xc32/v1.00/bin/../lib/gcc/pic32mx/4.5.1/../../../../pic32mx/lib/libm.a(fpcos32.o)
                0x9d01903c                fpcos
                0x9d01903c                cosf

.text._NVMOperation
                0x9d019150      0x114
 .text._NVMOperation
                0x9d019150      0x114 /home/opt/microchip/xc32/v1.00/bin/../lib/gcc/pic32mx/4.5.1/../../../../pic32mx/lib/libmchp_peripheral_32MX440F128H.a(nvm_operation_lib.o)
                0x9d019150                _NVMOperation

.text           0x9d019264      0x108
 .text          0x9d019264      0x108 /home/opt/microchip/xc32/v1.00/bin/../lib/gcc/pic32mx/4.5.1/../../../../pic32mx/lib/libm.a(fpreduct32.o)
                0x9d019264                fpreduct

.rodata         0x9d01936c       0xf8
 .rodata        0x9d01936c       0xf8 build/default/debug/_ext/711791526/servoCalibration.o

.text           0x9d019464       0xec
 .text          0x9d019464       0xec build/default/debug/_ext/664674842/Namespace_bcs_cartesian.o
                0x9d019464                cartesianAsyncEventCallback
                0x9d0194dc                getBcsCartesianNamespace

.text.general_exception
                0x9d019550       0xd0
 .text.general_exception
                0x9d019550       0xd0 /home/opt/microchip/xc32/v1.00/bin/../lib/gcc/pic32mx/4.5.1/../../../../pic32mx/lib/libc.a(general-exception.o)
                0x9d019550                _general_exception_context

.text           0x9d019620       0xc4
 .text          0x9d019620       0xc4 build/default/debug/_ext/2118813141/Bowler_USB_HAL.o
                0x9d019620                GetPacketUSB
                0x9d01966c                SendPacketUSB
                0x9d0196b4                Get_USB_Byte_Count

.rodata         0x9d0196e4      0x164
 .rodata        0x9d0196e4       0xb4 build/default/debug/_ext/1080174469/Bowler_Transport.o
 .rodata        0x9d019798       0xb0 build/default/debug/_ext/711791526/AS5055.o

.text           0x9d019848      0x150
 .text          0x9d019848       0xa8 build/default/debug/_ext/711791526/SPIClient.o
                0x9d019848                SPITransceve
                0x9d0198a8                get
 .text          0x9d0198f0       0xa8 /home/opt/microchip/xc32/v1.00/bin/../lib/gcc/pic32mx/4.5.1/../../../../pic32mx/lib/libc.a(memset.o)
                0x9d0198f0                memset

.rodata         0x9d019998      0x110
 .rodata        0x9d019998       0x90 build/default/debug/_ext/1080174469/AbstractPID.o
 .rodata        0x9d019a28       0x80 /home/opt/microchip/xc32/v1.00/bin/../lib/gcc/pic32mx/4.5.1/../../../../pic32mx/lib/libmchp_peripheral_32MX440F128H.a(spi_brg_tbl_lib_legacy.o)
                0x9d019a28                _SpiBrgConvTbl

.text.UARTEnable
                0x9d019aa8       0x80
 .text.UARTEnable
                0x9d019aa8       0x80 /home/opt/microchip/xc32/v1.00/bin/../lib/gcc/pic32mx/4.5.1/../../../../pic32mx/lib/libmchp_peripheral_32MX440F128H.a(uart_lib.o)
                0x9d019aa8                UARTEnable

.rodata         0x9d019b28       0x68
 .rodata        0x9d019b28       0x68 build/default/debug/_ext/1080174469/FIFO.o

.text.OpenSPI2  0x9d019b90       0x60
 .text.OpenSPI2
                0x9d019b90       0x60 /home/opt/microchip/xc32/v1.00/bin/../lib/gcc/pic32mx/4.5.1/../../../../pic32mx/lib/libmchp_peripheral_32MX440F128H.a(spi_open_spi2_lib_legacy.o)
                0x9d019b90                OpenSPI2

.rodata         0x9d019bf0       0x5c
 .rodata        0x9d019bf0       0x5c build/default/debug/_ext/1080174469/Bowler_Server.o
                0x9d019bf0                Broadcast

.text.UARTSetDataRate
                0x9d019c4c       0x5c
 .text.UARTSetDataRate
                0x9d019c4c       0x5c /home/opt/microchip/xc32/v1.00/bin/../lib/gcc/pic32mx/4.5.1/../../../../pic32mx/lib/libmchp_peripheral_32MX440F128H.a(uart_lib.o)
                0x9d019c4c                UARTSetDataRate

.text.INTEnable
                0x9d019ca8       0x58
 .text.INTEnable
                0x9d019ca8       0x58 /home/opt/microchip/xc32/v1.00/bin/../lib/gcc/pic32mx/4.5.1/../../../../pic32mx/lib/libmchp_peripheral_32MX440F128H.a(int_tbl_lib.o)
                0x9d019ca8                INTEnable

.rodata         0x9d019d00       0xe8
 .rodata        0x9d019d00       0x50 build/default/debug/_ext/1080174469/Namespace_bcs_pid.o
 .rodata        0x9d019d50       0x4c build/default/debug/_ext/1080174469/Bowler_RPC_Process.o
 .rodata        0x9d019d9c       0x4c build/default/debug/_ext/1080174469/Namespace_bcs_core.o
                0x9d019d9c                coreName

.text.sqrtf     0x9d019de8       0x4c
 .text.sqrtf    0x9d019de8       0x4c /home/opt/microchip/xc32/v1.00/bin/../lib/gcc/pic32mx/4.5.1/../../../../pic32mx/lib/libm.a(w_sqrtf.o)
                0x9d019de8                sqrtf

.text           0x9d019e34       0x48
 .text          0x9d019e34       0x48 /home/opt/microchip/xc32/v1.00/bin/../lib/gcc/pic32mx/4.5.1/libgcc.a(floatunsisf.o)
                0x9d019e34                __floatunsisf

.rodata         0x9d019e7c       0x8c
 .rodata        0x9d019e7c       0x48 /home/opt/microchip/xc32/v1.00/bin/../lib/gcc/pic32mx/4.5.1/../../../../pic32mx/lib/libmchp_peripheral_32MX440F128H.a(_ports_tbl_libp.o)
                0x9d019e7c                PortRegTbl
 .rodata        0x9d019ec4       0x44 build/default/debug/_ext/1487882678/usb_function_cdc.o

.text.PORTSetPinsDigitalOut
                0x9d019f08       0x40
 .text.PORTSetPinsDigitalOut
                0x9d019f08       0x40 /home/opt/microchip/xc32/v1.00/bin/../lib/gcc/pic32mx/4.5.1/../../../../pic32mx/lib/libmchp_peripheral_32MX440F128H.a(port_set_pins_digital_out_lib.o)
                0x9d019f08                PORTSetPinsDigitalOut

.text.UARTGetDataRate
                0x9d019f48       0x40
 .text.UARTGetDataRate
                0x9d019f48       0x40 /home/opt/microchip/xc32/v1.00/bin/../lib/gcc/pic32mx/4.5.1/../../../../pic32mx/lib/libmchp_peripheral_32MX440F128H.a(uart_lib.o)
                0x9d019f48                UARTGetDataRate

.text.INTSetVectorPriority
                0x9d019f88       0x3c
 .text.INTSetVectorPriority
                0x9d019f88       0x3c /home/opt/microchip/xc32/v1.00/bin/../lib/gcc/pic32mx/4.5.1/../../../../pic32mx/lib/libmchp_peripheral_32MX440F128H.a(int_tbl_lib.o)
                0x9d019f88                INTSetVectorPriority

.text.INTSetVectorSubPriority
                0x9d019fc4       0x3c
 .text.INTSetVectorSubPriority
                0x9d019fc4       0x3c /home/opt/microchip/xc32/v1.00/bin/../lib/gcc/pic32mx/4.5.1/../../../../pic32mx/lib/libmchp_peripheral_32MX440F128H.a(int_tbl_lib.o)
                0x9d019fc4                INTSetVectorSubPriority

.text.UARTConfigure
                0x9d01a000       0x3c
 .text.UARTConfigure
                0x9d01a000       0x3c /home/opt/microchip/xc32/v1.00/bin/../lib/gcc/pic32mx/4.5.1/../../../../pic32mx/lib/libmchp_peripheral_32MX440F128H.a(uart_lib.o)
                0x9d01a000                UARTConfigure

.text.UARTSetAddress
                0x9d01a03c       0x3c
 .text.UARTSetAddress
                0x9d01a03c       0x3c /home/opt/microchip/xc32/v1.00/bin/../lib/gcc/pic32mx/4.5.1/../../../../pic32mx/lib/libmchp_peripheral_32MX440F128H.a(uart_lib.o)
                0x9d01a03c                UARTSetAddress

.rodata         0x9d01a078       0x70
 .rodata        0x9d01a078       0x38 build/default/debug/_ext/711791526/UpstreamPackets.o
 .rodata        0x9d01a0b0       0x38 build/default/debug/_ext/711791526/PID.o

.text.UARTWatchForAddress
                0x9d01a0e8       0x38
 .text.UARTWatchForAddress
                0x9d01a0e8       0x38 /home/opt/microchip/xc32/v1.00/bin/../lib/gcc/pic32mx/4.5.1/../../../../pic32mx/lib/libmchp_peripheral_32MX440F128H.a(uart_lib.o)
                0x9d01a0e8                UARTWatchForAddress

.rodata         0x9d01a120       0x34
 .rodata        0x9d01a120       0x34 build/default/debug/_ext/1487882678/usb_fifo.o

.text.INTEnableSystemMultiVectoredInt
                0x9d01a154       0x34
 .text.INTEnableSystemMultiVectoredInt
                0x9d01a154       0x34 /home/opt/microchip/xc32/v1.00/bin/../lib/gcc/pic32mx/4.5.1/../../../../pic32mx/lib/libmchp_peripheral_32MX440F128H.a(int_enable_mv_int_lib.o)
                0x9d01a154                INTEnableSystemMultiVectoredInt

.text.NVMWriteWord
                0x9d01a188       0x34
 .text.NVMWriteWord
                0x9d01a188       0x34 /home/opt/microchip/xc32/v1.00/bin/../lib/gcc/pic32mx/4.5.1/../../../../pic32mx/lib/libmchp_peripheral_32MX440F128H.a(nvm_write_word_lib.o)
                0x9d01a188                NVMWriteWord

.text.INTGetVectorPriority
                0x9d01a1bc       0x30
 .text.INTGetVectorPriority
                0x9d01a1bc       0x30 /home/opt/microchip/xc32/v1.00/bin/../lib/gcc/pic32mx/4.5.1/../../../../pic32mx/lib/libmchp_peripheral_32MX440F128H.a(int_tbl_lib.o)
                0x9d01a1bc                INTGetVectorPriority

.text.INTGetVectorSubPriority
                0x9d01a1ec       0x30
 .text.INTGetVectorSubPriority
                0x9d01a1ec       0x30 /home/opt/microchip/xc32/v1.00/bin/../lib/gcc/pic32mx/4.5.1/../../../../pic32mx/lib/libmchp_peripheral_32MX440F128H.a(int_tbl_lib.o)
                0x9d01a1ec                INTGetVectorSubPriority

.text.SpiChnGetC
                0x9d01a21c       0x30
 .text.SpiChnGetC
                0x9d01a21c       0x30 /home/opt/microchip/xc32/v1.00/bin/../lib/gcc/pic32mx/4.5.1/../../../../pic32mx/lib/libmchp_peripheral_32MX440F128H.a(spi_chn_getc_lib.o)
                0x9d01a21c                SpiChnGetC

.text.SpiChnPutC
                0x9d01a24c       0x30
 .text.SpiChnPutC
                0x9d01a24c       0x30 /home/opt/microchip/xc32/v1.00/bin/../lib/gcc/pic32mx/4.5.1/../../../../pic32mx/lib/libmchp_peripheral_32MX440F128H.a(spi_chn_putc_lib.o)
                0x9d01a24c                SpiChnPutC

.text.INTClearFlag
                0x9d01a27c       0x2c
 .text.INTClearFlag
                0x9d01a27c       0x2c /home/opt/microchip/xc32/v1.00/bin/../lib/gcc/pic32mx/4.5.1/../../../../pic32mx/lib/libmchp_peripheral_32MX440F128H.a(int_tbl_lib.o)
                0x9d01a27c                INTClearFlag

.text.INTSetFlag
                0x9d01a2a8       0x2c
 .text.INTSetFlag
                0x9d01a2a8       0x2c /home/opt/microchip/xc32/v1.00/bin/../lib/gcc/pic32mx/4.5.1/../../../../pic32mx/lib/libmchp_peripheral_32MX440F128H.a(int_tbl_lib.o)
                0x9d01a2a8                INTSetFlag

.text.INTGetFlag
                0x9d01a2d4       0x2c
 .text.INTGetFlag
                0x9d01a2d4       0x2c /home/opt/microchip/xc32/v1.00/bin/../lib/gcc/pic32mx/4.5.1/../../../../pic32mx/lib/libmchp_peripheral_32MX440F128H.a(int_tbl_lib.o)
                0x9d01a2d4                INTGetFlag

.text.INTGetEnable
                0x9d01a300       0x2c
 .text.INTGetEnable
                0x9d01a300       0x2c /home/opt/microchip/xc32/v1.00/bin/../lib/gcc/pic32mx/4.5.1/../../../../pic32mx/lib/libmchp_peripheral_32MX440F128H.a(int_tbl_lib.o)
                0x9d01a300                INTGetEnable

.text.NVMErasePage
                0x9d01a32c       0x2c
 .text.NVMErasePage
                0x9d01a32c       0x2c /home/opt/microchip/xc32/v1.00/bin/../lib/gcc/pic32mx/4.5.1/../../../../pic32mx/lib/libmchp_peripheral_32MX440F128H.a(nvm_erase_page_lib.o)
                0x9d01a32c                NVMErasePage

.rodata         0x9d01a358       0x50
 .rodata        0x9d01a358       0x28 build/default/debug/_ext/711791526/delta.o
 .rodata        0x9d01a380       0x28 build/default/debug/_ext/664674842/Namespace_bcs_cartesian.o

.text.PORTClearBits
                0x9d01a3a8       0x28
 .text.PORTClearBits
                0x9d01a3a8       0x28 /home/opt/microchip/xc32/v1.00/bin/../lib/gcc/pic32mx/4.5.1/../../../../pic32mx/lib/libmchp_peripheral_32MX440F128H.a(port_clear_bits_lib.o)
                0x9d01a3a8                PORTClearBits

.text.PORTSetBits
                0x9d01a3d0       0x28
 .text.PORTSetBits
                0x9d01a3d0       0x28 /home/opt/microchip/xc32/v1.00/bin/../lib/gcc/pic32mx/4.5.1/../../../../pic32mx/lib/libmchp_peripheral_32MX440F128H.a(port_set_bits_lib.o)
                0x9d01a3d0                PORTSetBits

.text.UARTSetFifoMode
                0x9d01a3f8       0x28
 .text.UARTSetFifoMode
                0x9d01a3f8       0x28 /home/opt/microchip/xc32/v1.00/bin/../lib/gcc/pic32mx/4.5.1/../../../../pic32mx/lib/libmchp_peripheral_32MX440F128H.a(uart_lib.o)
                0x9d01a3f8                UARTSetFifoMode

.text.UARTSetLineControl
                0x9d01a420       0x28
 .text.UARTSetLineControl
                0x9d01a420       0x28 /home/opt/microchip/xc32/v1.00/bin/../lib/gcc/pic32mx/4.5.1/../../../../pic32mx/lib/libmchp_peripheral_32MX440F128H.a(uart_lib.o)
                0x9d01a420                UARTSetLineControl

.rodata         0x9d01a448       0x20
 .rodata        0x9d01a448       0x20 build/default/debug/_ext/1080174469/Namespace_bcs_rpc.o

.text.SpiChnReadC
                0x9d01a468       0x20
 .text.SpiChnReadC
                0x9d01a468       0x20 /home/opt/microchip/xc32/v1.00/bin/../lib/gcc/pic32mx/4.5.1/../../../../pic32mx/lib/libmchp_peripheral_32MX440F128H.a(spi_chn_getc_lib.o)
                0x9d01a468                SpiChnReadC

.text.SpiChnWriteC
                0x9d01a488       0x20
 .text.SpiChnWriteC
                0x9d01a488       0x20 /home/opt/microchip/xc32/v1.00/bin/../lib/gcc/pic32mx/4.5.1/../../../../pic32mx/lib/libmchp_peripheral_32MX440F128H.a(spi_chn_putc_lib.o)
                0x9d01a488                SpiChnWriteC

.rodata         0x9d01a4a8       0x1c
 .rodata        0x9d01a4a8       0x1c build/default/debug/_ext/1080174469/Bowler_Helper.o

.text.INTRestoreInterrupts
                0x9d01a4c4       0x1c
 .text.INTRestoreInterrupts
                0x9d01a4c4       0x1c /home/opt/microchip/xc32/v1.00/bin/../lib/gcc/pic32mx/4.5.1/../../../../pic32mx/lib/libmchp_peripheral_32MX440F128H.a(int_restore_interrupts_lib.o)
                0x9d01a4c4                INTRestoreInterrupts

.text.SpiChnBuffer
                0x9d01a4e0       0x1c
 .text.SpiChnBuffer
                0x9d01a4e0       0x1c /home/opt/microchip/xc32/v1.00/bin/../lib/gcc/pic32mx/4.5.1/../../../../pic32mx/lib/libmchp_peripheral_32MX440F128H.a(spi_chn_putc_lib.o)
                0x9d01a4e0                SpiChnBuffer

.rodata         0x9d01a4fc       0x30
 .rodata        0x9d01a4fc       0x18 build/default/debug/_ext/711791526/Servo.o
 .rodata        0x9d01a514       0x18 build/default/debug/_ext/711791526/ForgeHeater.o

.text           0x9d01a52c       0x18
 .text          0x9d01a52c       0x18 /home/opt/microchip/xc32/v1.00/bin/../lib/gcc/pic32mx/4.5.1/../../../../pic32mx/lib/libc.a(default-nmi-handler.o)
                0x9d01a52c                _nmi_handler

.text.CheKseg0CacheOff
                0x9d01a544       0x18
 .text.CheKseg0CacheOff
                0x9d01a544       0x18 /home/opt/microchip/xc32/v1.00/bin/../lib/gcc/pic32mx/4.5.1/../../../../pic32mx/lib/libmchp_peripheral_32MX440F128H.a(pcache.o)
                0x9d01a544                CheKseg0CacheOff

.text.CheKseg0CacheOn
                0x9d01a55c       0x18
 .text.CheKseg0CacheOn
                0x9d01a55c       0x18 /home/opt/microchip/xc32/v1.00/bin/../lib/gcc/pic32mx/4.5.1/../../../../pic32mx/lib/libmchp_peripheral_32MX440F128H.a(pcache.o)
                0x9d01a55c                CheKseg0CacheOn

.rodata         0x9d01a574       0x14
 .rodata        0x9d01a574       0x14 /home/opt/microchip/xc32/v1.00/bin/../lib/gcc/pic32mx/4.5.1/../../../../pic32mx/lib/libmchp_peripheral_32MX440F128H.a(spi_map_tbl_libp.o)
                0x9d01a574                _SpiMapTbl

.text           0x9d01a588       0x10
 .text          0x9d01a588       0x10 /home/opt/microchip/xc32/v1.00/bin/../lib/gcc/pic32mx/4.5.1/../../../../pic32mx/lib/crt0.o
                0x9d01a590                __crt0_exit

.rodata         0x9d01a598        0xc
 .rodata        0x9d01a598        0xc build/default/debug/_ext/2118813141/Tick.o

.text._bootstrap_exception_handler
                0x9d01a5a4        0xc
 .text._bootstrap_exception_handler
                0x9d01a5a4        0xc /home/opt/microchip/xc32/v1.00/bin/../lib/gcc/pic32mx/4.5.1/../../../../pic32mx/lib/libc.a(default-bootstrap-exception-handler.o)
                0x9d01a5a4                _bootstrap_exception_handler

.text._on_reset
                0x9d01a5b0        0x8
 .text._on_reset
                0x9d01a5b0        0x8 /home/opt/microchip/xc32/v1.00/bin/../lib/gcc/pic32mx/4.5.1/../../../../pic32mx/lib/libc.a(default-on-reset.o)
                0x9d01a5b0                _on_reset

.text._on_bootstrap
                0x9d01a5b8        0x8
 .text._on_bootstrap
                0x9d01a5b8        0x8 /home/opt/microchip/xc32/v1.00/bin/../lib/gcc/pic32mx/4.5.1/../../../../pic32mx/lib/libc.a(default-on-bootstrap.o)
                0x9d01a5b8                _on_bootstrap

.text.INTEnableInterrupts
                0x9d01a5c0        0x8
 .text.INTEnableInterrupts
                0x9d01a5c0        0x8 /home/opt/microchip/xc32/v1.00/bin/../lib/gcc/pic32mx/4.5.1/../../../../pic32mx/lib/libmchp_peripheral_32MX440F128H.a(int_enable_interrupts_lib.o)
                0x9d01a5c0                INTEnableInterrupts

.text.INTDisableInterrupts
                0x9d01a5c8        0x8
 .text.INTDisableInterrupts
                0x9d01a5c8        0x8 /home/opt/microchip/xc32/v1.00/bin/../lib/gcc/pic32mx/4.5.1/../../../../pic32mx/lib/libmchp_peripheral_32MX440F128H.a(int_disable_interrupts_lib.o)
                0x9d01a5c8                INTDisableInterrupts

.rodata         0x9d01a5d0        0xc
 .rodata        0x9d01a5d0        0x8 /home/opt/microchip/xc32/v1.00/bin/../lib/gcc/pic32mx/4.5.1/../../../../pic32mx/lib/libmchp_peripheral_32MX440F128H.a(uart_lib.o)
                0x9d01a5d0                uartReg
 .rodata        0x9d01a5d8        0x4 build/default/debug/_ext/2118813141/ADC.o

.text%z217      0x00000000        0x0
 .text          0x00000000        0x0 /home/opt/microchip/xc32/v1.00/bin/../lib/gcc/pic32mx/4.5.1/../../../../pic32mx/lib/libmchp_peripheral_32MX440F128H.a(uart_lib.o)

.text%z218      0x00000000        0x0
 .text          0x00000000        0x0 /home/opt/microchip/xc32/v1.00/bin/../lib/gcc/pic32mx/4.5.1/../../../../pic32mx/lib/libmchp_peripheral_32MX440F128H.a(_ports_tbl_libp.o)

.text%z219      0x00000000        0x0
 .text          0x00000000        0x0 /home/opt/microchip/xc32/v1.00/bin/../lib/gcc/pic32mx/4.5.1/../../../../pic32mx/lib/libmchp_peripheral_32MX440F128H.a(port_set_bits_lib.o)

.text%z220      0x00000000        0x0
 .text          0x00000000        0x0 /home/opt/microchip/xc32/v1.00/bin/../lib/gcc/pic32mx/4.5.1/../../../../pic32mx/lib/libmchp_peripheral_32MX440F128H.a(port_clear_bits_lib.o)

.text%z221      0x00000000        0x0
 .text          0x00000000        0x0 /home/opt/microchip/xc32/v1.00/bin/../lib/gcc/pic32mx/4.5.1/../../../../pic32mx/lib/libmchp_peripheral_32MX440F128H.a(port_set_pins_digital_out_lib.o)

.text%z222      0x00000000        0x0
 .text          0x00000000        0x0 /home/opt/microchip/xc32/v1.00/bin/../lib/gcc/pic32mx/4.5.1/../../../../pic32mx/lib/libmchp_peripheral_32MX440F128H.a(nvm_write_word_lib.o)

.text%z223      0x00000000        0x0
 .text          0x00000000        0x0 /home/opt/microchip/xc32/v1.00/bin/../lib/gcc/pic32mx/4.5.1/../../../../pic32mx/lib/libmchp_peripheral_32MX440F128H.a(nvm_operation_lib.o)

.text%z224      0x00000000        0x0
 .text          0x00000000        0x0 /home/opt/microchip/xc32/v1.00/bin/../lib/gcc/pic32mx/4.5.1/../../../../pic32mx/lib/libmchp_peripheral_32MX440F128H.a(nvm_erase_page_lib.o)

.text%z225      0x00000000        0x0
 .text          0x00000000        0x0 /home/opt/microchip/xc32/v1.00/bin/../lib/gcc/pic32mx/4.5.1/../../../../pic32mx/lib/libmchp_peripheral_32MX440F128H.a(spi_brg_tbl_lib_legacy.o)

.text%z226      0x00000000        0x0
 .text          0x00000000        0x0 /home/opt/microchip/xc32/v1.00/bin/../lib/gcc/pic32mx/4.5.1/../../../../pic32mx/lib/libmchp_peripheral_32MX440F128H.a(spi_open_spi2_lib_legacy.o)

.text%z227      0x00000000        0x0
 .text          0x00000000        0x0 /home/opt/microchip/xc32/v1.00/bin/../lib/gcc/pic32mx/4.5.1/../../../../pic32mx/lib/libmchp_peripheral_32MX440F128H.a(spi_map_tbl_libp.o)

.text%z228      0x00000000        0x0
 .text          0x00000000        0x0 /home/opt/microchip/xc32/v1.00/bin/../lib/gcc/pic32mx/4.5.1/../../../../pic32mx/lib/libmchp_peripheral_32MX440F128H.a(spi_chn_putc_lib.o)

.text%z229      0x00000000        0x0
 .text          0x00000000        0x0 /home/opt/microchip/xc32/v1.00/bin/../lib/gcc/pic32mx/4.5.1/../../../../pic32mx/lib/libmchp_peripheral_32MX440F128H.a(spi_chn_getc_lib.o)

.text%z230      0x00000000        0x0
 .text          0x00000000        0x0 /home/opt/microchip/xc32/v1.00/bin/../lib/gcc/pic32mx/4.5.1/../../../../pic32mx/lib/libmchp_peripheral_32MX440F128H.a(int_tbl_lib.o)

.text%z231      0x00000000        0x0
 .text          0x00000000        0x0 /home/opt/microchip/xc32/v1.00/bin/../lib/gcc/pic32mx/4.5.1/../../../../pic32mx/lib/libmchp_peripheral_32MX440F128H.a(int_enable_mv_int_lib.o)

.text%z232      0x00000000        0x0
 .text          0x00000000        0x0 /home/opt/microchip/xc32/v1.00/bin/../lib/gcc/pic32mx/4.5.1/../../../../pic32mx/lib/libmchp_peripheral_32MX440F128H.a(int_restore_interrupts_lib.o)

.text%z233      0x00000000        0x0
 .text          0x00000000        0x0 /home/opt/microchip/xc32/v1.00/bin/../lib/gcc/pic32mx/4.5.1/../../../../pic32mx/lib/libmchp_peripheral_32MX440F128H.a(int_disable_interrupts_lib.o)

.text%z234      0x00000000        0x0
 .text          0x00000000        0x0 /home/opt/microchip/xc32/v1.00/bin/../lib/gcc/pic32mx/4.5.1/../../../../pic32mx/lib/libmchp_peripheral_32MX440F128H.a(int_enable_interrupts_lib.o)

.text%z235      0x00000000        0x0
 .text          0x00000000        0x0 /home/opt/microchip/xc32/v1.00/bin/../lib/gcc/pic32mx/4.5.1/../../../../pic32mx/lib/libmchp_peripheral_32MX440F128H.a(pcache.o)

.text%z236      0x00000000        0x0
 .text          0x00000000        0x0 /home/opt/microchip/xc32/v1.00/bin/../lib/gcc/pic32mx/4.5.1/../../../../pic32mx/lib/./proc/32MX440F128H/processor.o

.text%z237      0x00000000        0x0
 .text          0x00000000        0x0 /home/opt/microchip/xc32/v1.00/bin/../lib/gcc/pic32mx/4.5.1/../../../../pic32mx/lib/libc.a(errno.o)

.text%z238      0x00000000        0x0
 .text          0x00000000        0x0 /home/opt/microchip/xc32/v1.00/bin/../lib/gcc/pic32mx/4.5.1/../../../../pic32mx/lib/libm.a(s_lib_ver.o)

.text%z239      0x00000000        0x0
 .text          0x00000000        0x0 /home/opt/microchip/xc32/v1.00/bin/../lib/gcc/pic32mx/4.5.1/../../../../pic32mx/lib/libm.a(sincof32.o)

.text%z240      0x00000000        0x0
 .text          0x00000000        0x0 /home/opt/microchip/xc32/v1.00/bin/../lib/gcc/pic32mx/4.5.1/../../../../pic32mx/lib/libm.a(w_sqrtf.o)

.text%z241      0x00000000        0x0
 .text          0x00000000        0x0 /home/opt/microchip/xc32/v1.00/bin/../lib/gcc/pic32mx/4.5.1/../../../../pic32mx/lib/libc.a(default-on-bootstrap.o)

.text%z242      0x00000000        0x0
 .text          0x00000000        0x0 /home/opt/microchip/xc32/v1.00/bin/../lib/gcc/pic32mx/4.5.1/../../../../pic32mx/lib/libc.a(default-on-reset.o)

.text%z243      0x00000000        0x0
 .text          0x00000000        0x0 /home/opt/microchip/xc32/v1.00/bin/../lib/gcc/pic32mx/4.5.1/../../../../pic32mx/lib/libc.a(default-bootstrap-exception-handler.o)

.text%z244      0x00000000        0x0
 .text          0x00000000        0x0 /home/opt/microchip/xc32/v1.00/bin/../lib/gcc/pic32mx/4.5.1/../../../../pic32mx/lib/libc.a(general-exception.o)

.text%z245      0x00000000        0x0
 .text          0x00000000        0x0 build/default/debug/_ext/711791526/MotionTest.o

.text%z246      0x00000000        0x0
 .text          0x00000000        0x0 build/default/debug/_ext/711791526/Calibration.o

.text%z247      0x00000000        0x0
 .text          0x00000000        0x0 build/default/debug/_ext/711791526/DeltaKinematics.o

.text%z248      0x00000000        0x0
 .text          0x00000000        0x0 build/default/debug/_ext/1080174469/Bowler_Stack_Callback.o

.text%z249      0x00000000        0x0
 .text          0x00000000        0x0 build/default/debug/_ext/1487882678/usb_interrupt.o
